ARM GAS  C:\Users\Travis\AppData\Local\Temp\ccmIlOmt.s 			page 1


   1              		.cpu cortex-m4
   2              		.eabi_attribute 27, 1
   3              		.eabi_attribute 28, 1
   4              		.eabi_attribute 20, 1
   5              		.eabi_attribute 21, 1
   6              		.eabi_attribute 23, 3
   7              		.eabi_attribute 24, 1
   8              		.eabi_attribute 25, 1
   9              		.eabi_attribute 26, 1
  10              		.eabi_attribute 30, 1
  11              		.eabi_attribute 34, 1
  12              		.eabi_attribute 18, 4
  13              		.file	"esos_mail.c"
  14              		.text
  15              	.Ltext0:
  16              		.cfi_sections	.debug_frame
  17              		.section	.text.__esos_InitMailbox,"ax",%progbits
  18              		.align	1
  19              		.global	__esos_InitMailbox
  20              		.arch armv7e-m
  21              		.syntax unified
  22              		.thumb
  23              		.thumb_func
  24              		.fpu fpv4-sp-d16
  26              	__esos_InitMailbox:
  27              	.LVL0:
  28              	.LFB0:
  29              		.file 1 "C:/MinGW/msys/1.0/esos32/src/esos_mail.c"
   1:C:/MinGW/msys/1.0/esos32/src\esos_mail.c **** /*
   2:C:/MinGW/msys/1.0/esos32/src\esos_mail.c ****  * "Copyright (c) 2019 J. W. Bruce ("AUTHOR(S)")"
   3:C:/MinGW/msys/1.0/esos32/src\esos_mail.c ****  * All rights reserved.
   4:C:/MinGW/msys/1.0/esos32/src\esos_mail.c ****  * (J. W. Bruce, jwbruce_AT_tntech.edu, Tennessee Tech University)
   5:C:/MinGW/msys/1.0/esos32/src\esos_mail.c ****  *
   6:C:/MinGW/msys/1.0/esos32/src\esos_mail.c ****  * Permission to use, copy, modify, and distribute this software and its
   7:C:/MinGW/msys/1.0/esos32/src\esos_mail.c ****  * documentation for any purpose, without fee, and without written agreement is
   8:C:/MinGW/msys/1.0/esos32/src\esos_mail.c ****  * hereby granted, provided that the above copyright notice, the following
   9:C:/MinGW/msys/1.0/esos32/src\esos_mail.c ****  * two paragraphs and the authors appear in all copies of this software.
  10:C:/MinGW/msys/1.0/esos32/src\esos_mail.c ****  *
  11:C:/MinGW/msys/1.0/esos32/src\esos_mail.c ****  * IN NO EVENT SHALL THE "AUTHORS" BE LIABLE TO ANY PARTY FOR
  12:C:/MinGW/msys/1.0/esos32/src\esos_mail.c ****  * DIRECT, INDIRECT, SPECIAL, INCIDENTAL, OR CONSEQUENTIAL DAMAGES ARISING OUT
  13:C:/MinGW/msys/1.0/esos32/src\esos_mail.c ****  * OF THE USE OF THIS SOFTWARE AND ITS DOCUMENTATION, EVEN IF THE "AUTHORS"
  14:C:/MinGW/msys/1.0/esos32/src\esos_mail.c ****  * HAS BEEN ADVISED OF THE POSSIBILITY OF SUCH DAMAGE.
  15:C:/MinGW/msys/1.0/esos32/src\esos_mail.c ****  *
  16:C:/MinGW/msys/1.0/esos32/src\esos_mail.c ****  * THE "AUTHORS" SPECIFICALLY DISCLAIMS ANY WARRANTIES,
  17:C:/MinGW/msys/1.0/esos32/src\esos_mail.c ****  * INCLUDING, BUT NOT LIMITED TO, THE IMPLIED WARRANTIES OF MERCHANTABILITY
  18:C:/MinGW/msys/1.0/esos32/src\esos_mail.c ****  * AND FITNESS FOR A PARTICULAR PURPOSE.  THE SOFTWARE PROVIDED HEREUNDER IS
  19:C:/MinGW/msys/1.0/esos32/src\esos_mail.c ****  * ON AN "AS IS" BASIS, AND THE "AUTHORS" HAS NO OBLIGATION TO
  20:C:/MinGW/msys/1.0/esos32/src\esos_mail.c ****  * PROVIDE MAINTENANCE, SUPPORT, UPDATES, ENHANCEMENTS, OR MODIFICATIONS."
  21:C:/MinGW/msys/1.0/esos32/src\esos_mail.c ****  *
  22:C:/MinGW/msys/1.0/esos32/src\esos_mail.c ****  * Please maintain this header in its entirety when copying/modifying
  23:C:/MinGW/msys/1.0/esos32/src\esos_mail.c ****  * these files.
  24:C:/MinGW/msys/1.0/esos32/src\esos_mail.c ****  *
  25:C:/MinGW/msys/1.0/esos32/src\esos_mail.c ****  *
  26:C:/MinGW/msys/1.0/esos32/src\esos_mail.c ****  */
  27:C:/MinGW/msys/1.0/esos32/src\esos_mail.c **** 
  28:C:/MinGW/msys/1.0/esos32/src\esos_mail.c **** /** \file
  29:C:/MinGW/msys/1.0/esos32/src\esos_mail.c ****  * \brief Mailboxes and messaging code for ESOS32 tasks
ARM GAS  C:\Users\Travis\AppData\Local\Temp\ccmIlOmt.s 			page 2


  30:C:/MinGW/msys/1.0/esos32/src\esos_mail.c ****  *
  31:C:/MinGW/msys/1.0/esos32/src\esos_mail.c ****  */
  32:C:/MinGW/msys/1.0/esos32/src\esos_mail.c **** 
  33:C:/MinGW/msys/1.0/esos32/src\esos_mail.c **** 
  34:C:/MinGW/msys/1.0/esos32/src\esos_mail.c **** #include    "esos.h"
  35:C:/MinGW/msys/1.0/esos32/src\esos_mail.c **** #include    "esos_mail.h"
  36:C:/MinGW/msys/1.0/esos32/src\esos_mail.c **** 
  37:C:/MinGW/msys/1.0/esos32/src\esos_mail.c **** // ******** G L O B A L S ***************
  38:C:/MinGW/msys/1.0/esos32/src\esos_mail.c **** //MAILBOX     __astMailbox[MAX_NUM_USER_TASKS];
  39:C:/MinGW/msys/1.0/esos32/src\esos_mail.c **** //uint8_t       __au8_MBData[MAX_NUM_USER_TASKS][MAX_SIZE_TASK_MAILBOX];
  40:C:/MinGW/msys/1.0/esos32/src\esos_mail.c **** uint8_t       __u8_esos_mail_routines_dummy_uint8;
  41:C:/MinGW/msys/1.0/esos32/src\esos_mail.c **** 
  42:C:/MinGW/msys/1.0/esos32/src\esos_mail.c **** /****************************************************************
  43:C:/MinGW/msys/1.0/esos32/src\esos_mail.c **** ** F U N C T I O N S
  44:C:/MinGW/msys/1.0/esos32/src\esos_mail.c **** ****************************************************************/
  45:C:/MinGW/msys/1.0/esos32/src\esos_mail.c **** void __esos_InitMailbox(MAILBOX* pst_Mailbox, uint8_t* pau8_ptr) {
  30              		.loc 1 45 66 view -0
  31              		.cfi_startproc
  32              		@ args = 0, pretend = 0, frame = 0
  33              		@ frame_needed = 0, uses_anonymous_args = 0
  34              		.loc 1 45 66 is_stmt 0 view .LVU1
  35 0000 08B5     		push	{r3, lr}
  36              	.LCFI0:
  37              		.cfi_def_cfa_offset 8
  38              		.cfi_offset 3, -8
  39              		.cfi_offset 14, -4
  46:C:/MinGW/msys/1.0/esos32/src\esos_mail.c ****   __esos_CB_Init( pst_Mailbox->pst_CBuffer, pau8_ptr, MAX_SIZE_TASK_MAILBOX);
  40              		.loc 1 46 3 is_stmt 1 view .LVU2
  41 0002 7822     		movs	r2, #120
  42 0004 0068     		ldr	r0, [r0]
  43              	.LVL1:
  44              		.loc 1 46 3 is_stmt 0 view .LVU3
  45 0006 FFF7FEFF 		bl	__esos_CB_Init
  46              	.LVL2:
  47:C:/MinGW/msys/1.0/esos32/src\esos_mail.c **** } // endof esos_InitMailbox()
  47              		.loc 1 47 1 view .LVU4
  48 000a 08BD     		pop	{r3, pc}
  49              		.cfi_endproc
  50              	.LFE0:
  52              		.section	.text.__esos_SendMailMessage,"ax",%progbits
  53              		.align	1
  54              		.global	__esos_SendMailMessage
  55              		.syntax unified
  56              		.thumb
  57              		.thumb_func
  58              		.fpu fpv4-sp-d16
  60              	__esos_SendMailMessage:
  61              	.LVL3:
  62              	.LFB1:
  48:C:/MinGW/msys/1.0/esos32/src\esos_mail.c **** 
  49:C:/MinGW/msys/1.0/esos32/src\esos_mail.c **** /**
  50:C:/MinGW/msys/1.0/esos32/src\esos_mail.c **** * Writes message data to a task's mailbox.
  51:C:/MinGW/msys/1.0/esos32/src\esos_mail.c **** *
  52:C:/MinGW/msys/1.0/esos32/src\esos_mail.c **** * \param pst_RcvrTask  pointer to task structure (ESOS_TASK_HANDLE) whose mailbox will be written
  53:C:/MinGW/msys/1.0/esos32/src\esos_mail.c **** * \param pst_Msg        pointer to mailbox message structure that contains data to write to the tas
  54:C:/MinGW/msys/1.0/esos32/src\esos_mail.c **** * \note This function <em>ASSUMES</em> that there is ample free space available in specified
  55:C:/MinGW/msys/1.0/esos32/src\esos_mail.c **** * mailbox.
ARM GAS  C:\Users\Travis\AppData\Local\Temp\ccmIlOmt.s 			page 3


  56:C:/MinGW/msys/1.0/esos32/src\esos_mail.c **** *
  57:C:/MinGW/msys/1.0/esos32/src\esos_mail.c **** * \sa ESOS_TASK_WAIT_ON_TASKS_MAILBOX_HAS_SPACE
  58:C:/MinGW/msys/1.0/esos32/src\esos_mail.c **** * \hideinitializer
  59:C:/MinGW/msys/1.0/esos32/src\esos_mail.c **** */
  60:C:/MinGW/msys/1.0/esos32/src\esos_mail.c **** void __esos_SendMailMessage(ESOS_TASK_HANDLE pst_RcvrTask, MAILMESSAGE* pst_Msg ) {
  63              		.loc 1 60 83 is_stmt 1 view -0
  64              		.cfi_startproc
  65              		@ args = 0, pretend = 0, frame = 0
  66              		@ frame_needed = 0, uses_anonymous_args = 0
  67              		.loc 1 60 83 is_stmt 0 view .LVU6
  68 0000 F8B5     		push	{r3, r4, r5, r6, r7, lr}
  69              	.LCFI1:
  70              		.cfi_def_cfa_offset 24
  71              		.cfi_offset 3, -24
  72              		.cfi_offset 4, -20
  73              		.cfi_offset 5, -16
  74              		.cfi_offset 6, -12
  75              		.cfi_offset 7, -8
  76              		.cfi_offset 14, -4
  77 0002 0646     		mov	r6, r0
  78 0004 0D46     		mov	r5, r1
  61:C:/MinGW/msys/1.0/esos32/src\esos_mail.c ****   uint8_t               u8_i;
  79              		.loc 1 61 3 is_stmt 1 view .LVU7
  62:C:/MinGW/msys/1.0/esos32/src\esos_mail.c **** 
  63:C:/MinGW/msys/1.0/esos32/src\esos_mail.c ****   // first message btye:  flags in upper nibble, payload length in lower
  64:C:/MinGW/msys/1.0/esos32/src\esos_mail.c ****   u8_i = ((pst_Msg->u8_flags)<<4) + (pst_Msg->u8_DataLength & 0x0F);
  80              		.loc 1 64 3 view .LVU8
  81              		.loc 1 64 19 is_stmt 0 view .LVU9
  82 0006 0978     		ldrb	r1, [r1]	@ zero_extendqisi2
  83              	.LVL4:
  84              		.loc 1 64 30 view .LVU10
  85 0008 0901     		lsls	r1, r1, #4
  86 000a C9B2     		uxtb	r1, r1
  87              		.loc 1 64 45 view .LVU11
  88 000c 2B79     		ldrb	r3, [r5, #4]	@ zero_extendqisi2
  89              		.loc 1 64 61 view .LVU12
  90 000e 03F00F03 		and	r3, r3, #15
  91              		.loc 1 64 8 view .LVU13
  92 0012 1944     		add	r1, r1, r3
  93              	.LVL5:
  65:C:/MinGW/msys/1.0/esos32/src\esos_mail.c ****   __esos_CB_WriteUINT8( pst_RcvrTask->pst_Mailbox->pst_CBuffer, u8_i );
  94              		.loc 1 65 3 is_stmt 1 view .LVU14
  95              		.loc 1 65 37 is_stmt 0 view .LVU15
  96 0014 4369     		ldr	r3, [r0, #20]
  97              		.loc 1 65 3 view .LVU16
  98 0016 C9B2     		uxtb	r1, r1
  99              		.loc 1 65 3 view .LVU17
 100 0018 1868     		ldr	r0, [r3]
 101              	.LVL6:
 102              		.loc 1 65 3 view .LVU18
 103 001a FFF7FEFF 		bl	__esos_CB_WriteUINT8
 104              	.LVL7:
  66:C:/MinGW/msys/1.0/esos32/src\esos_mail.c ****   // second message word: Task ID of sending task
  67:C:/MinGW/msys/1.0/esos32/src\esos_mail.c ****   __esos_CB_WriteUINT16( pst_RcvrTask->pst_Mailbox->pst_CBuffer, ESOS_GET_PMSG_FROMTASK(pst_Msg) );
 105              		.loc 1 67 3 is_stmt 1 view .LVU19
 106              		.loc 1 67 38 is_stmt 0 view .LVU20
 107 001e 7369     		ldr	r3, [r6, #20]
ARM GAS  C:\Users\Travis\AppData\Local\Temp\ccmIlOmt.s 			page 4


 108              		.loc 1 67 3 view .LVU21
 109 0020 6988     		ldrh	r1, [r5, #2]
 110 0022 1868     		ldr	r0, [r3]
 111 0024 FFF7FEFF 		bl	__esos_CB_WriteUINT16
 112              	.LVL8:
  68:C:/MinGW/msys/1.0/esos32/src\esos_mail.c ****   // Now, timestamp the message with double word
  69:C:/MinGW/msys/1.0/esos32/src\esos_mail.c ****   __esos_CB_WriteUINT32( pst_RcvrTask->pst_Mailbox->pst_CBuffer, esos_GetSystemTick() );
 113              		.loc 1 69 3 is_stmt 1 view .LVU22
 114              		.loc 1 69 38 is_stmt 0 view .LVU23
 115 0028 7369     		ldr	r3, [r6, #20]
 116              		.loc 1 69 3 view .LVU24
 117 002a 1C68     		ldr	r4, [r3]
 118 002c FFF7FEFF 		bl	__esos_hw_GetSystemTickCount
 119              	.LVL9:
 120 0030 0146     		mov	r1, r0
 121 0032 2046     		mov	r0, r4
 122 0034 FFF7FEFF 		bl	__esos_CB_WriteUINT32
 123              	.LVL10:
  70:C:/MinGW/msys/1.0/esos32/src\esos_mail.c ****   // Now write the data depending on what type and how many
  71:C:/MinGW/msys/1.0/esos32/src\esos_mail.c ****   if ( ESOS_GET_PMSG_FLAGS(pst_Msg) & ESOS_MAILMESSAGE_UINT8) {
 124              		.loc 1 71 3 is_stmt 1 view .LVU25
 125              		.loc 1 71 8 is_stmt 0 view .LVU26
 126 0038 2B78     		ldrb	r3, [r5]	@ zero_extendqisi2
 127              		.loc 1 71 6 view .LVU27
 128 003a 13F00104 		ands	r4, r3, #1
 129 003e 06D1     		bne	.L13
  72:C:/MinGW/msys/1.0/esos32/src\esos_mail.c ****     for (u8_i=0; u8_i<ESOS_GET_PMSG_DATA_LENGTH(pst_Msg); u8_i++) {
  73:C:/MinGW/msys/1.0/esos32/src\esos_mail.c ****       __esos_CB_WriteUINT8( pst_RcvrTask->pst_Mailbox->pst_CBuffer, pst_Msg->au8_Contents[u8_i] );
  74:C:/MinGW/msys/1.0/esos32/src\esos_mail.c ****     } // end for UINT8s
  75:C:/MinGW/msys/1.0/esos32/src\esos_mail.c ****   } else if ( ESOS_GET_PMSG_FLAGS(pst_Msg) & ESOS_MAILMESSAGE_UINT16) {
 130              		.loc 1 75 10 is_stmt 1 view .LVU28
 131              		.loc 1 75 13 is_stmt 0 view .LVU29
 132 0040 13F00207 		ands	r7, r3, #2
 133 0044 10D1     		bne	.L8
  76:C:/MinGW/msys/1.0/esos32/src\esos_mail.c ****     for (u8_i=0; u8_i<pst_Msg->u8_DataLength; u8_i++) {
  77:C:/MinGW/msys/1.0/esos32/src\esos_mail.c ****       __esos_CB_WriteUINT16( pst_RcvrTask->pst_Mailbox->pst_CBuffer, pst_Msg->au16_Contents[u8_i] )
  78:C:/MinGW/msys/1.0/esos32/src\esos_mail.c ****     } // end for UINT16s
  79:C:/MinGW/msys/1.0/esos32/src\esos_mail.c ****   } else if ( ESOS_GET_PMSG_FLAGS(pst_Msg) & ESOS_MAILMESSAGE_UINT32) {
 134              		.loc 1 79 10 is_stmt 1 view .LVU30
 135              		.loc 1 79 13 is_stmt 0 view .LVU31
 136 0046 13F0040F 		tst	r3, #4
 137 004a 25D1     		bne	.L11
 138              	.L3:
  80:C:/MinGW/msys/1.0/esos32/src\esos_mail.c ****     for (u8_i=0; u8_i<pst_Msg->u8_DataLength; u8_i++) {
  81:C:/MinGW/msys/1.0/esos32/src\esos_mail.c ****       __esos_CB_WriteUINT32( pst_RcvrTask->pst_Mailbox->pst_CBuffer, pst_Msg->au32_Contents[u8_i] )
  82:C:/MinGW/msys/1.0/esos32/src\esos_mail.c ****     } // end for UINT32s
  83:C:/MinGW/msys/1.0/esos32/src\esos_mail.c ****   } else {
  84:C:/MinGW/msys/1.0/esos32/src\esos_mail.c ****   } // end for STRINGs
  85:C:/MinGW/msys/1.0/esos32/src\esos_mail.c **** } // endof __esos_SendMailMessage()
 139              		.loc 1 85 1 view .LVU32
 140 004c F8BD     		pop	{r3, r4, r5, r6, r7, pc}
 141              	.LVL11:
 142              	.L13:
  72:C:/MinGW/msys/1.0/esos32/src\esos_mail.c ****       __esos_CB_WriteUINT8( pst_RcvrTask->pst_Mailbox->pst_CBuffer, pst_Msg->au8_Contents[u8_i] );
 143              		.loc 1 72 14 view .LVU33
 144 004e 0024     		movs	r4, #0
 145              	.L4:
ARM GAS  C:\Users\Travis\AppData\Local\Temp\ccmIlOmt.s 			page 5


 146              	.LVL12:
  72:C:/MinGW/msys/1.0/esos32/src\esos_mail.c ****       __esos_CB_WriteUINT8( pst_RcvrTask->pst_Mailbox->pst_CBuffer, pst_Msg->au8_Contents[u8_i] );
 147              		.loc 1 72 18 is_stmt 1 discriminator 1 view .LVU34
  72:C:/MinGW/msys/1.0/esos32/src\esos_mail.c ****       __esos_CB_WriteUINT8( pst_RcvrTask->pst_Mailbox->pst_CBuffer, pst_Msg->au8_Contents[u8_i] );
 148              		.loc 1 72 23 is_stmt 0 discriminator 1 view .LVU35
 149 0050 2B79     		ldrb	r3, [r5, #4]	@ zero_extendqisi2
  72:C:/MinGW/msys/1.0/esos32/src\esos_mail.c ****       __esos_CB_WriteUINT8( pst_RcvrTask->pst_Mailbox->pst_CBuffer, pst_Msg->au8_Contents[u8_i] );
 150              		.loc 1 72 5 discriminator 1 view .LVU36
 151 0052 A342     		cmp	r3, r4
 152 0054 FAD9     		bls	.L3
  73:C:/MinGW/msys/1.0/esos32/src\esos_mail.c ****     } // end for UINT8s
 153              		.loc 1 73 7 is_stmt 1 discriminator 3 view .LVU37
  73:C:/MinGW/msys/1.0/esos32/src\esos_mail.c ****     } // end for UINT8s
 154              		.loc 1 73 41 is_stmt 0 discriminator 3 view .LVU38
 155 0056 7369     		ldr	r3, [r6, #20]
  73:C:/MinGW/msys/1.0/esos32/src\esos_mail.c ****     } // end for UINT8s
 156              		.loc 1 73 7 discriminator 3 view .LVU39
 157 0058 2A19     		adds	r2, r5, r4
 158 005a 117B     		ldrb	r1, [r2, #12]	@ zero_extendqisi2
 159 005c 1868     		ldr	r0, [r3]
 160 005e FFF7FEFF 		bl	__esos_CB_WriteUINT8
 161              	.LVL13:
  72:C:/MinGW/msys/1.0/esos32/src\esos_mail.c ****       __esos_CB_WriteUINT8( pst_RcvrTask->pst_Mailbox->pst_CBuffer, pst_Msg->au8_Contents[u8_i] );
 162              		.loc 1 72 59 is_stmt 1 discriminator 3 view .LVU40
  72:C:/MinGW/msys/1.0/esos32/src\esos_mail.c ****       __esos_CB_WriteUINT8( pst_RcvrTask->pst_Mailbox->pst_CBuffer, pst_Msg->au8_Contents[u8_i] );
 163              		.loc 1 72 63 is_stmt 0 discriminator 3 view .LVU41
 164 0062 0134     		adds	r4, r4, #1
 165              	.LVL14:
  72:C:/MinGW/msys/1.0/esos32/src\esos_mail.c ****       __esos_CB_WriteUINT8( pst_RcvrTask->pst_Mailbox->pst_CBuffer, pst_Msg->au8_Contents[u8_i] );
 166              		.loc 1 72 63 discriminator 3 view .LVU42
 167 0064 E4B2     		uxtb	r4, r4
 168              	.LVL15:
  72:C:/MinGW/msys/1.0/esos32/src\esos_mail.c ****       __esos_CB_WriteUINT8( pst_RcvrTask->pst_Mailbox->pst_CBuffer, pst_Msg->au8_Contents[u8_i] );
 169              		.loc 1 72 63 discriminator 3 view .LVU43
 170 0066 F3E7     		b	.L4
 171              	.LVL16:
 172              	.L8:
  76:C:/MinGW/msys/1.0/esos32/src\esos_mail.c ****       __esos_CB_WriteUINT16( pst_RcvrTask->pst_Mailbox->pst_CBuffer, pst_Msg->au16_Contents[u8_i] )
 173              		.loc 1 76 18 is_stmt 1 discriminator 1 view .LVU44
  76:C:/MinGW/msys/1.0/esos32/src\esos_mail.c ****       __esos_CB_WriteUINT16( pst_RcvrTask->pst_Mailbox->pst_CBuffer, pst_Msg->au16_Contents[u8_i] )
 174              		.loc 1 76 30 is_stmt 0 discriminator 1 view .LVU45
 175 0068 2B79     		ldrb	r3, [r5, #4]	@ zero_extendqisi2
  76:C:/MinGW/msys/1.0/esos32/src\esos_mail.c ****       __esos_CB_WriteUINT16( pst_RcvrTask->pst_Mailbox->pst_CBuffer, pst_Msg->au16_Contents[u8_i] )
 176              		.loc 1 76 5 discriminator 1 view .LVU46
 177 006a A342     		cmp	r3, r4
 178 006c EED9     		bls	.L3
  77:C:/MinGW/msys/1.0/esos32/src\esos_mail.c ****     } // end for UINT16s
 179              		.loc 1 77 7 is_stmt 1 discriminator 3 view .LVU47
  77:C:/MinGW/msys/1.0/esos32/src\esos_mail.c ****     } // end for UINT16s
 180              		.loc 1 77 42 is_stmt 0 discriminator 3 view .LVU48
 181 006e 7269     		ldr	r2, [r6, #20]
  77:C:/MinGW/msys/1.0/esos32/src\esos_mail.c ****     } // end for UINT16s
 182              		.loc 1 77 7 discriminator 3 view .LVU49
 183 0070 231D     		adds	r3, r4, #4
 184 0072 05EB4303 		add	r3, r5, r3, lsl #1
 185 0076 9988     		ldrh	r1, [r3, #4]
 186 0078 1068     		ldr	r0, [r2]
ARM GAS  C:\Users\Travis\AppData\Local\Temp\ccmIlOmt.s 			page 6


 187 007a FFF7FEFF 		bl	__esos_CB_WriteUINT16
 188              	.LVL17:
  76:C:/MinGW/msys/1.0/esos32/src\esos_mail.c ****       __esos_CB_WriteUINT16( pst_RcvrTask->pst_Mailbox->pst_CBuffer, pst_Msg->au16_Contents[u8_i] )
 189              		.loc 1 76 47 is_stmt 1 discriminator 3 view .LVU50
  76:C:/MinGW/msys/1.0/esos32/src\esos_mail.c ****       __esos_CB_WriteUINT16( pst_RcvrTask->pst_Mailbox->pst_CBuffer, pst_Msg->au16_Contents[u8_i] )
 190              		.loc 1 76 51 is_stmt 0 discriminator 3 view .LVU51
 191 007e 0134     		adds	r4, r4, #1
 192              	.LVL18:
  76:C:/MinGW/msys/1.0/esos32/src\esos_mail.c ****       __esos_CB_WriteUINT16( pst_RcvrTask->pst_Mailbox->pst_CBuffer, pst_Msg->au16_Contents[u8_i] )
 193              		.loc 1 76 51 discriminator 3 view .LVU52
 194 0080 E4B2     		uxtb	r4, r4
 195              	.LVL19:
  76:C:/MinGW/msys/1.0/esos32/src\esos_mail.c ****       __esos_CB_WriteUINT16( pst_RcvrTask->pst_Mailbox->pst_CBuffer, pst_Msg->au16_Contents[u8_i] )
 196              		.loc 1 76 51 discriminator 3 view .LVU53
 197 0082 F1E7     		b	.L8
 198              	.LVL20:
 199              	.L12:
  81:C:/MinGW/msys/1.0/esos32/src\esos_mail.c ****     } // end for UINT32s
 200              		.loc 1 81 7 is_stmt 1 discriminator 3 view .LVU54
  81:C:/MinGW/msys/1.0/esos32/src\esos_mail.c ****     } // end for UINT32s
 201              		.loc 1 81 42 is_stmt 0 discriminator 3 view .LVU55
 202 0084 7269     		ldr	r2, [r6, #20]
  81:C:/MinGW/msys/1.0/esos32/src\esos_mail.c ****     } // end for UINT32s
 203              		.loc 1 81 7 discriminator 3 view .LVU56
 204 0086 BB1C     		adds	r3, r7, #2
 205 0088 05EB8303 		add	r3, r5, r3, lsl #2
 206 008c 5968     		ldr	r1, [r3, #4]
 207 008e 1068     		ldr	r0, [r2]
 208 0090 FFF7FEFF 		bl	__esos_CB_WriteUINT32
 209              	.LVL21:
  80:C:/MinGW/msys/1.0/esos32/src\esos_mail.c ****       __esos_CB_WriteUINT32( pst_RcvrTask->pst_Mailbox->pst_CBuffer, pst_Msg->au32_Contents[u8_i] )
 210              		.loc 1 80 47 is_stmt 1 discriminator 3 view .LVU57
  80:C:/MinGW/msys/1.0/esos32/src\esos_mail.c ****       __esos_CB_WriteUINT32( pst_RcvrTask->pst_Mailbox->pst_CBuffer, pst_Msg->au32_Contents[u8_i] )
 211              		.loc 1 80 51 is_stmt 0 discriminator 3 view .LVU58
 212 0094 0137     		adds	r7, r7, #1
 213              	.LVL22:
  80:C:/MinGW/msys/1.0/esos32/src\esos_mail.c ****       __esos_CB_WriteUINT32( pst_RcvrTask->pst_Mailbox->pst_CBuffer, pst_Msg->au32_Contents[u8_i] )
 214              		.loc 1 80 51 discriminator 3 view .LVU59
 215 0096 FFB2     		uxtb	r7, r7
 216              	.LVL23:
 217              	.L11:
  80:C:/MinGW/msys/1.0/esos32/src\esos_mail.c ****       __esos_CB_WriteUINT32( pst_RcvrTask->pst_Mailbox->pst_CBuffer, pst_Msg->au32_Contents[u8_i] )
 218              		.loc 1 80 18 is_stmt 1 discriminator 1 view .LVU60
  80:C:/MinGW/msys/1.0/esos32/src\esos_mail.c ****       __esos_CB_WriteUINT32( pst_RcvrTask->pst_Mailbox->pst_CBuffer, pst_Msg->au32_Contents[u8_i] )
 219              		.loc 1 80 30 is_stmt 0 discriminator 1 view .LVU61
 220 0098 2B79     		ldrb	r3, [r5, #4]	@ zero_extendqisi2
  80:C:/MinGW/msys/1.0/esos32/src\esos_mail.c ****       __esos_CB_WriteUINT32( pst_RcvrTask->pst_Mailbox->pst_CBuffer, pst_Msg->au32_Contents[u8_i] )
 221              		.loc 1 80 5 discriminator 1 view .LVU62
 222 009a BB42     		cmp	r3, r7
 223 009c F2D8     		bhi	.L12
 224 009e D5E7     		b	.L3
 225              		.cfi_endproc
 226              	.LFE1:
 228              		.section	.text.__esos_ReadMailMessage,"ax",%progbits
 229              		.align	1
 230              		.global	__esos_ReadMailMessage
 231              		.syntax unified
ARM GAS  C:\Users\Travis\AppData\Local\Temp\ccmIlOmt.s 			page 7


 232              		.thumb
 233              		.thumb_func
 234              		.fpu fpv4-sp-d16
 236              	__esos_ReadMailMessage:
 237              	.LVL24:
 238              	.LFB2:
  86:C:/MinGW/msys/1.0/esos32/src\esos_mail.c **** 
  87:C:/MinGW/msys/1.0/esos32/src\esos_mail.c **** /**
  88:C:/MinGW/msys/1.0/esos32/src\esos_mail.c **** * Reads the next (oldest) waiting message from a task's mailbox.
  89:C:/MinGW/msys/1.0/esos32/src\esos_mail.c **** *
  90:C:/MinGW/msys/1.0/esos32/src\esos_mail.c **** * \param pstTask  pointer to task structure (ESOS_TASK_HANDLE) whose mailbox will be written
  91:C:/MinGW/msys/1.0/esos32/src\esos_mail.c **** * \param pstMsg   pointer to mailbox message structure that contains data to write to the task's ma
  92:C:/MinGW/msys/1.0/esos32/src\esos_mail.c **** * \note This function <em>ASSUMES</em> that there is ample free space available in specified
  93:C:/MinGW/msys/1.0/esos32/src\esos_mail.c **** * mailbox.
  94:C:/MinGW/msys/1.0/esos32/src\esos_mail.c **** *
  95:C:/MinGW/msys/1.0/esos32/src\esos_mail.c **** * \sa ESOS_TASK_WAIT_ON_TASKS_MAILBOX_HAS_SPACE
  96:C:/MinGW/msys/1.0/esos32/src\esos_mail.c **** * \hideinitializer
  97:C:/MinGW/msys/1.0/esos32/src\esos_mail.c **** */
  98:C:/MinGW/msys/1.0/esos32/src\esos_mail.c **** void __esos_ReadMailMessage(ESOS_TASK_HANDLE pst_Task, MAILMESSAGE* pst_Message ) {
 239              		.loc 1 98 83 is_stmt 1 view -0
 240              		.cfi_startproc
 241              		@ args = 0, pretend = 0, frame = 0
 242              		@ frame_needed = 0, uses_anonymous_args = 0
 243              		.loc 1 98 83 is_stmt 0 view .LVU64
 244 0000 F8B5     		push	{r3, r4, r5, r6, r7, lr}
 245              	.LCFI2:
 246              		.cfi_def_cfa_offset 24
 247              		.cfi_offset 3, -24
 248              		.cfi_offset 4, -20
 249              		.cfi_offset 5, -16
 250              		.cfi_offset 6, -12
 251              		.cfi_offset 7, -8
 252              		.cfi_offset 14, -4
 253 0002 0646     		mov	r6, r0
 254 0004 0D46     		mov	r5, r1
  99:C:/MinGW/msys/1.0/esos32/src\esos_mail.c ****   uint8_t               u8_i;
 255              		.loc 1 99 3 is_stmt 1 view .LVU65
 100:C:/MinGW/msys/1.0/esos32/src\esos_mail.c ****   ESOS_TASK_HANDLE      pst_From;
 256              		.loc 1 100 3 view .LVU66
 101:C:/MinGW/msys/1.0/esos32/src\esos_mail.c **** 
 102:C:/MinGW/msys/1.0/esos32/src\esos_mail.c ****   /* first message btye:  flags in upper nibble, payload length in lower */
 103:C:/MinGW/msys/1.0/esos32/src\esos_mail.c ****   u8_i = __esos_CB_ReadUINT8( pst_Task->pst_Mailbox->pst_CBuffer );
 257              		.loc 1 103 3 view .LVU67
 258              		.loc 1 103 39 is_stmt 0 view .LVU68
 259 0006 4369     		ldr	r3, [r0, #20]
 260              		.loc 1 103 10 view .LVU69
 261 0008 1868     		ldr	r0, [r3]
 262              	.LVL25:
 263              		.loc 1 103 10 view .LVU70
 264 000a FFF7FEFF 		bl	__esos_CB_ReadUINT8
 265              	.LVL26:
 104:C:/MinGW/msys/1.0/esos32/src\esos_mail.c ****   pst_Message->u8_flags = u8_i>>4;
 266              		.loc 1 104 3 is_stmt 1 view .LVU71
 267              		.loc 1 104 25 is_stmt 0 view .LVU72
 268 000e 0309     		lsrs	r3, r0, #4
 269 0010 2B70     		strb	r3, [r5]
 105:C:/MinGW/msys/1.0/esos32/src\esos_mail.c ****   pst_Message->u8_DataLength = u8_i & 0x0F;
ARM GAS  C:\Users\Travis\AppData\Local\Temp\ccmIlOmt.s 			page 8


 270              		.loc 1 105 3 is_stmt 1 view .LVU73
 271              		.loc 1 105 37 is_stmt 0 view .LVU74
 272 0012 00F00F00 		and	r0, r0, #15
 273              	.LVL27:
 274              		.loc 1 105 30 view .LVU75
 275 0016 2871     		strb	r0, [r5, #4]
 106:C:/MinGW/msys/1.0/esos32/src\esos_mail.c ****   /* second message byte: Task ID of sending task */
 107:C:/MinGW/msys/1.0/esos32/src\esos_mail.c ****   pst_Message->u16_FromTaskID = __esos_CB_ReadUINT16( pst_Task->pst_Mailbox->pst_CBuffer );
 276              		.loc 1 107 3 is_stmt 1 view .LVU76
 277              		.loc 1 107 63 is_stmt 0 view .LVU77
 278 0018 7369     		ldr	r3, [r6, #20]
 279              		.loc 1 107 33 view .LVU78
 280 001a 1868     		ldr	r0, [r3]
 281 001c FFF7FEFF 		bl	__esos_CB_ReadUINT16
 282              	.LVL28:
 283              		.loc 1 107 31 view .LVU79
 284 0020 6880     		strh	r0, [r5, #2]	@ movhi
 108:C:/MinGW/msys/1.0/esos32/src\esos_mail.c ****   /* Now, timestamp the message */
 109:C:/MinGW/msys/1.0/esos32/src\esos_mail.c ****   pst_Message->u32_Postmark = __esos_CB_ReadUINT32( pst_Task->pst_Mailbox->pst_CBuffer );
 285              		.loc 1 109 3 is_stmt 1 view .LVU80
 286              		.loc 1 109 61 is_stmt 0 view .LVU81
 287 0022 7369     		ldr	r3, [r6, #20]
 288              		.loc 1 109 31 view .LVU82
 289 0024 1868     		ldr	r0, [r3]
 290 0026 FFF7FEFF 		bl	__esos_CB_ReadUINT32
 291              	.LVL29:
 292              		.loc 1 109 29 view .LVU83
 293 002a A860     		str	r0, [r5, #8]
 110:C:/MinGW/msys/1.0/esos32/src\esos_mail.c ****   /* Now write the data depending on what type and how many */
 111:C:/MinGW/msys/1.0/esos32/src\esos_mail.c ****   if ( ESOS_GET_PMSG_FLAGS(pst_Message) & ESOS_MAILMESSAGE_UINT8) {
 294              		.loc 1 111 3 is_stmt 1 view .LVU84
 295              		.loc 1 111 8 is_stmt 0 view .LVU85
 296 002c 2B78     		ldrb	r3, [r5]	@ zero_extendqisi2
 297              		.loc 1 111 6 view .LVU86
 298 002e 13F00104 		ands	r4, r3, #1
 299 0032 0AD1     		bne	.L28
 112:C:/MinGW/msys/1.0/esos32/src\esos_mail.c ****     for (u8_i=0; u8_i<ESOS_GET_PMSG_DATA_LENGTH(pst_Message); u8_i++) {
 113:C:/MinGW/msys/1.0/esos32/src\esos_mail.c ****       pst_Message->au8_Contents[u8_i] = __esos_CB_ReadUINT8( pst_Task->pst_Mailbox->pst_CBuffer );
 114:C:/MinGW/msys/1.0/esos32/src\esos_mail.c ****     } // end for UINT8s
 115:C:/MinGW/msys/1.0/esos32/src\esos_mail.c ****   } else if ( ESOS_GET_PMSG_FLAGS(pst_Message) & ESOS_MAILMESSAGE_UINT16) {
 300              		.loc 1 115 10 is_stmt 1 view .LVU87
 301              		.loc 1 115 13 is_stmt 0 view .LVU88
 302 0034 13F00207 		ands	r7, r3, #2
 303 0038 14D1     		bne	.L22
 116:C:/MinGW/msys/1.0/esos32/src\esos_mail.c ****     for (u8_i=0; u8_i<pst_Message->u8_DataLength; u8_i++) {
 117:C:/MinGW/msys/1.0/esos32/src\esos_mail.c ****       pst_Message->au16_Contents[u8_i] = __esos_CB_ReadUINT16( pst_Task->pst_Mailbox->pst_CBuffer )
 118:C:/MinGW/msys/1.0/esos32/src\esos_mail.c ****     } // end for UINT16s
 119:C:/MinGW/msys/1.0/esos32/src\esos_mail.c ****   } else if ( ESOS_GET_PMSG_FLAGS(pst_Message) & ESOS_MAILMESSAGE_UINT32) {
 304              		.loc 1 119 10 is_stmt 1 view .LVU89
 305              		.loc 1 119 13 is_stmt 0 view .LVU90
 306 003a 13F0040F 		tst	r3, #4
 307 003e 29D1     		bne	.L25
 308              	.L21:
 120:C:/MinGW/msys/1.0/esos32/src\esos_mail.c ****     for (u8_i=0; u8_i<pst_Message->u8_DataLength; u8_i++) {
 121:C:/MinGW/msys/1.0/esos32/src\esos_mail.c ****       pst_Message->au32_Contents[u8_i] = __esos_CB_ReadUINT32( pst_Task->pst_Mailbox->pst_CBuffer )
 122:C:/MinGW/msys/1.0/esos32/src\esos_mail.c ****     } // end for UINT32s
 123:C:/MinGW/msys/1.0/esos32/src\esos_mail.c ****   } else {
ARM GAS  C:\Users\Travis\AppData\Local\Temp\ccmIlOmt.s 			page 9


 124:C:/MinGW/msys/1.0/esos32/src\esos_mail.c ****   } // end strings
 309              		.loc 1 124 3 is_stmt 1 view .LVU91
 125:C:/MinGW/msys/1.0/esos32/src\esos_mail.c ****   /* If sending task requests ACK a.k.a. "delivery confirmation, then do it */
 126:C:/MinGW/msys/1.0/esos32/src\esos_mail.c ****   if ( ESOS_GET_PMSG_FLAGS(pst_Message) & ESOS_MAILMESSAGE_REQUEST_ACK) {
 310              		.loc 1 126 3 view .LVU92
 311              		.loc 1 126 8 is_stmt 0 view .LVU93
 312 0040 2B78     		ldrb	r3, [r5]	@ zero_extendqisi2
 313              		.loc 1 126 6 view .LVU94
 314 0042 13F0080F 		tst	r3, #8
 315 0046 29D1     		bne	.L32
 316              	.L17:
 127:C:/MinGW/msys/1.0/esos32/src\esos_mail.c ****     pst_From = esos_GetTaskHandleFromID( ESOS_GET_PMSG_FROMTASK(pst_Message) );
 128:C:/MinGW/msys/1.0/esos32/src\esos_mail.c ****     if (pst_From != NULLPTR) {
 129:C:/MinGW/msys/1.0/esos32/src\esos_mail.c ****       __ESOS_CLEAR_TASK_MAILNACK_FLAG( pst_From );
 130:C:/MinGW/msys/1.0/esos32/src\esos_mail.c ****     } // end if ! NULLPTR
 131:C:/MinGW/msys/1.0/esos32/src\esos_mail.c ****   } //end if
 132:C:/MinGW/msys/1.0/esos32/src\esos_mail.c **** } // __esos_ReadMailMessage()
 317              		.loc 1 132 1 view .LVU95
 318 0048 F8BD     		pop	{r3, r4, r5, r6, r7, pc}
 319              	.LVL30:
 320              	.L28:
 112:C:/MinGW/msys/1.0/esos32/src\esos_mail.c ****       pst_Message->au8_Contents[u8_i] = __esos_CB_ReadUINT8( pst_Task->pst_Mailbox->pst_CBuffer );
 321              		.loc 1 112 14 view .LVU96
 322 004a 0024     		movs	r4, #0
 323              	.L18:
 324              	.LVL31:
 112:C:/MinGW/msys/1.0/esos32/src\esos_mail.c ****       pst_Message->au8_Contents[u8_i] = __esos_CB_ReadUINT8( pst_Task->pst_Mailbox->pst_CBuffer );
 325              		.loc 1 112 18 is_stmt 1 discriminator 1 view .LVU97
 112:C:/MinGW/msys/1.0/esos32/src\esos_mail.c ****       pst_Message->au8_Contents[u8_i] = __esos_CB_ReadUINT8( pst_Task->pst_Mailbox->pst_CBuffer );
 326              		.loc 1 112 23 is_stmt 0 discriminator 1 view .LVU98
 327 004c 2B79     		ldrb	r3, [r5, #4]	@ zero_extendqisi2
 112:C:/MinGW/msys/1.0/esos32/src\esos_mail.c ****       pst_Message->au8_Contents[u8_i] = __esos_CB_ReadUINT8( pst_Task->pst_Mailbox->pst_CBuffer );
 328              		.loc 1 112 5 discriminator 1 view .LVU99
 329 004e A342     		cmp	r3, r4
 330 0050 F6D9     		bls	.L21
 113:C:/MinGW/msys/1.0/esos32/src\esos_mail.c ****     } // end for UINT8s
 331              		.loc 1 113 7 is_stmt 1 discriminator 3 view .LVU100
 113:C:/MinGW/msys/1.0/esos32/src\esos_mail.c ****     } // end for UINT8s
 332              		.loc 1 113 70 is_stmt 0 discriminator 3 view .LVU101
 333 0052 7369     		ldr	r3, [r6, #20]
 113:C:/MinGW/msys/1.0/esos32/src\esos_mail.c ****     } // end for UINT8s
 334              		.loc 1 113 41 discriminator 3 view .LVU102
 335 0054 1868     		ldr	r0, [r3]
 336 0056 FFF7FEFF 		bl	__esos_CB_ReadUINT8
 337              	.LVL32:
 113:C:/MinGW/msys/1.0/esos32/src\esos_mail.c ****     } // end for UINT8s
 338              		.loc 1 113 39 discriminator 3 view .LVU103
 339 005a 2B19     		adds	r3, r5, r4
 340 005c 1873     		strb	r0, [r3, #12]
 112:C:/MinGW/msys/1.0/esos32/src\esos_mail.c ****       pst_Message->au8_Contents[u8_i] = __esos_CB_ReadUINT8( pst_Task->pst_Mailbox->pst_CBuffer );
 341              		.loc 1 112 63 is_stmt 1 discriminator 3 view .LVU104
 112:C:/MinGW/msys/1.0/esos32/src\esos_mail.c ****       pst_Message->au8_Contents[u8_i] = __esos_CB_ReadUINT8( pst_Task->pst_Mailbox->pst_CBuffer );
 342              		.loc 1 112 67 is_stmt 0 discriminator 3 view .LVU105
 343 005e 0134     		adds	r4, r4, #1
 344              	.LVL33:
 112:C:/MinGW/msys/1.0/esos32/src\esos_mail.c ****       pst_Message->au8_Contents[u8_i] = __esos_CB_ReadUINT8( pst_Task->pst_Mailbox->pst_CBuffer );
 345              		.loc 1 112 67 discriminator 3 view .LVU106
ARM GAS  C:\Users\Travis\AppData\Local\Temp\ccmIlOmt.s 			page 10


 346 0060 E4B2     		uxtb	r4, r4
 347              	.LVL34:
 112:C:/MinGW/msys/1.0/esos32/src\esos_mail.c ****       pst_Message->au8_Contents[u8_i] = __esos_CB_ReadUINT8( pst_Task->pst_Mailbox->pst_CBuffer );
 348              		.loc 1 112 67 discriminator 3 view .LVU107
 349 0062 F3E7     		b	.L18
 350              	.LVL35:
 351              	.L22:
 116:C:/MinGW/msys/1.0/esos32/src\esos_mail.c ****       pst_Message->au16_Contents[u8_i] = __esos_CB_ReadUINT16( pst_Task->pst_Mailbox->pst_CBuffer )
 352              		.loc 1 116 18 is_stmt 1 discriminator 1 view .LVU108
 116:C:/MinGW/msys/1.0/esos32/src\esos_mail.c ****       pst_Message->au16_Contents[u8_i] = __esos_CB_ReadUINT16( pst_Task->pst_Mailbox->pst_CBuffer )
 353              		.loc 1 116 34 is_stmt 0 discriminator 1 view .LVU109
 354 0064 2B79     		ldrb	r3, [r5, #4]	@ zero_extendqisi2
 116:C:/MinGW/msys/1.0/esos32/src\esos_mail.c ****       pst_Message->au16_Contents[u8_i] = __esos_CB_ReadUINT16( pst_Task->pst_Mailbox->pst_CBuffer )
 355              		.loc 1 116 5 discriminator 1 view .LVU110
 356 0066 A342     		cmp	r3, r4
 357 0068 EAD9     		bls	.L21
 117:C:/MinGW/msys/1.0/esos32/src\esos_mail.c ****     } // end for UINT16s
 358              		.loc 1 117 7 is_stmt 1 discriminator 3 view .LVU111
 117:C:/MinGW/msys/1.0/esos32/src\esos_mail.c ****     } // end for UINT16s
 359              		.loc 1 117 72 is_stmt 0 discriminator 3 view .LVU112
 360 006a 7369     		ldr	r3, [r6, #20]
 117:C:/MinGW/msys/1.0/esos32/src\esos_mail.c ****     } // end for UINT16s
 361              		.loc 1 117 42 discriminator 3 view .LVU113
 362 006c 1868     		ldr	r0, [r3]
 363 006e FFF7FEFF 		bl	__esos_CB_ReadUINT16
 364              	.LVL36:
 117:C:/MinGW/msys/1.0/esos32/src\esos_mail.c ****     } // end for UINT16s
 365              		.loc 1 117 40 discriminator 3 view .LVU114
 366 0072 231D     		adds	r3, r4, #4
 367 0074 05EB4303 		add	r3, r5, r3, lsl #1
 368 0078 9880     		strh	r0, [r3, #4]	@ movhi
 116:C:/MinGW/msys/1.0/esos32/src\esos_mail.c ****       pst_Message->au16_Contents[u8_i] = __esos_CB_ReadUINT16( pst_Task->pst_Mailbox->pst_CBuffer )
 369              		.loc 1 116 51 is_stmt 1 discriminator 3 view .LVU115
 116:C:/MinGW/msys/1.0/esos32/src\esos_mail.c ****       pst_Message->au16_Contents[u8_i] = __esos_CB_ReadUINT16( pst_Task->pst_Mailbox->pst_CBuffer )
 370              		.loc 1 116 55 is_stmt 0 discriminator 3 view .LVU116
 371 007a 0134     		adds	r4, r4, #1
 372              	.LVL37:
 116:C:/MinGW/msys/1.0/esos32/src\esos_mail.c ****       pst_Message->au16_Contents[u8_i] = __esos_CB_ReadUINT16( pst_Task->pst_Mailbox->pst_CBuffer )
 373              		.loc 1 116 55 discriminator 3 view .LVU117
 374 007c E4B2     		uxtb	r4, r4
 375              	.LVL38:
 116:C:/MinGW/msys/1.0/esos32/src\esos_mail.c ****       pst_Message->au16_Contents[u8_i] = __esos_CB_ReadUINT16( pst_Task->pst_Mailbox->pst_CBuffer )
 376              		.loc 1 116 55 discriminator 3 view .LVU118
 377 007e F1E7     		b	.L22
 378              	.LVL39:
 379              	.L26:
 121:C:/MinGW/msys/1.0/esos32/src\esos_mail.c ****     } // end for UINT32s
 380              		.loc 1 121 7 is_stmt 1 discriminator 3 view .LVU119
 121:C:/MinGW/msys/1.0/esos32/src\esos_mail.c ****     } // end for UINT32s
 381              		.loc 1 121 72 is_stmt 0 discriminator 3 view .LVU120
 382 0080 7369     		ldr	r3, [r6, #20]
 121:C:/MinGW/msys/1.0/esos32/src\esos_mail.c ****     } // end for UINT32s
 383              		.loc 1 121 42 discriminator 3 view .LVU121
 384 0082 1868     		ldr	r0, [r3]
 385 0084 FFF7FEFF 		bl	__esos_CB_ReadUINT32
 386              	.LVL40:
 121:C:/MinGW/msys/1.0/esos32/src\esos_mail.c ****     } // end for UINT32s
ARM GAS  C:\Users\Travis\AppData\Local\Temp\ccmIlOmt.s 			page 11


 387              		.loc 1 121 40 discriminator 3 view .LVU122
 388 0088 BB1C     		adds	r3, r7, #2
 389 008a 05EB8303 		add	r3, r5, r3, lsl #2
 390 008e 5860     		str	r0, [r3, #4]
 120:C:/MinGW/msys/1.0/esos32/src\esos_mail.c ****       pst_Message->au32_Contents[u8_i] = __esos_CB_ReadUINT32( pst_Task->pst_Mailbox->pst_CBuffer )
 391              		.loc 1 120 51 is_stmt 1 discriminator 3 view .LVU123
 120:C:/MinGW/msys/1.0/esos32/src\esos_mail.c ****       pst_Message->au32_Contents[u8_i] = __esos_CB_ReadUINT32( pst_Task->pst_Mailbox->pst_CBuffer )
 392              		.loc 1 120 55 is_stmt 0 discriminator 3 view .LVU124
 393 0090 0137     		adds	r7, r7, #1
 394              	.LVL41:
 120:C:/MinGW/msys/1.0/esos32/src\esos_mail.c ****       pst_Message->au32_Contents[u8_i] = __esos_CB_ReadUINT32( pst_Task->pst_Mailbox->pst_CBuffer )
 395              		.loc 1 120 55 discriminator 3 view .LVU125
 396 0092 FFB2     		uxtb	r7, r7
 397              	.LVL42:
 398              	.L25:
 120:C:/MinGW/msys/1.0/esos32/src\esos_mail.c ****       pst_Message->au32_Contents[u8_i] = __esos_CB_ReadUINT32( pst_Task->pst_Mailbox->pst_CBuffer )
 399              		.loc 1 120 18 is_stmt 1 discriminator 1 view .LVU126
 120:C:/MinGW/msys/1.0/esos32/src\esos_mail.c ****       pst_Message->au32_Contents[u8_i] = __esos_CB_ReadUINT32( pst_Task->pst_Mailbox->pst_CBuffer )
 400              		.loc 1 120 34 is_stmt 0 discriminator 1 view .LVU127
 401 0094 2B79     		ldrb	r3, [r5, #4]	@ zero_extendqisi2
 120:C:/MinGW/msys/1.0/esos32/src\esos_mail.c ****       pst_Message->au32_Contents[u8_i] = __esos_CB_ReadUINT32( pst_Task->pst_Mailbox->pst_CBuffer )
 402              		.loc 1 120 5 discriminator 1 view .LVU128
 403 0096 BB42     		cmp	r3, r7
 404 0098 F2D8     		bhi	.L26
 405 009a D1E7     		b	.L21
 406              	.LVL43:
 407              	.L32:
 127:C:/MinGW/msys/1.0/esos32/src\esos_mail.c ****     if (pst_From != NULLPTR) {
 408              		.loc 1 127 5 is_stmt 1 view .LVU129
 127:C:/MinGW/msys/1.0/esos32/src\esos_mail.c ****     if (pst_From != NULLPTR) {
 409              		.loc 1 127 16 is_stmt 0 view .LVU130
 410 009c 6888     		ldrh	r0, [r5, #2]
 411 009e FFF7FEFF 		bl	esos_GetTaskHandleFromID
 412              	.LVL44:
 128:C:/MinGW/msys/1.0/esos32/src\esos_mail.c ****       __ESOS_CLEAR_TASK_MAILNACK_FLAG( pst_From );
 413              		.loc 1 128 5 is_stmt 1 view .LVU131
 128:C:/MinGW/msys/1.0/esos32/src\esos_mail.c ****       __ESOS_CLEAR_TASK_MAILNACK_FLAG( pst_From );
 414              		.loc 1 128 8 is_stmt 0 view .LVU132
 415 00a2 0028     		cmp	r0, #0
 416 00a4 D0D0     		beq	.L17
 129:C:/MinGW/msys/1.0/esos32/src\esos_mail.c ****     } // end if ! NULLPTR
 417              		.loc 1 129 7 is_stmt 1 view .LVU133
 418 00a6 8378     		ldrb	r3, [r0, #2]	@ zero_extendqisi2
 419 00a8 23F02003 		bic	r3, r3, #32
 420 00ac 8370     		strb	r3, [r0, #2]
 421              		.loc 1 132 1 is_stmt 0 view .LVU134
 422 00ae CBE7     		b	.L17
 423              		.cfi_endproc
 424              	.LFE2:
 426              		.comm	__u8_esos_mail_routines_dummy_uint8,1,1
 427              		.text
 428              	.Letext0:
 429              		.file 2 "c:\\program files (x86)\\gnu tools arm embedded\\9 2019-q4-major\\arm-none-eabi\\include\
 430              		.file 3 "c:\\program files (x86)\\gnu tools arm embedded\\9 2019-q4-major\\arm-none-eabi\\include\
 431              		.file 4 "C:/MinGW/msys/1.0/esos32/include/lc-switch.h"
 432              		.file 5 "C:/MinGW/msys/1.0/esos32/include/esos_cb.h"
 433              		.file 6 "C:/MinGW/msys/1.0/esos32/include/esos_mail.h"
ARM GAS  C:\Users\Travis\AppData\Local\Temp\ccmIlOmt.s 			page 12


 434              		.file 7 "C:/MinGW/msys/1.0/esos32/include/esos_task.h"
 435              		.file 8 "C:/MinGW/msys/1.0/esos32/include/esos_utils.h"
 436              		.file 9 "C:/MinGW/msys/1.0/esos32/include/esos_comm.h"
 437              		.file 10 "C:/MinGW/msys/1.0/esos32/include/esos.h"
ARM GAS  C:\Users\Travis\AppData\Local\Temp\ccmIlOmt.s 			page 13

