ARM GAS  C:\Users\Travis\AppData\Local\Temp\ccEEWcRa.s 			page 1


   1              		.cpu cortex-m4
   2              		.eabi_attribute 27, 1
   3              		.eabi_attribute 28, 1
   4              		.eabi_attribute 20, 1
   5              		.eabi_attribute 21, 1
   6              		.eabi_attribute 23, 3
   7              		.eabi_attribute 24, 1
   8              		.eabi_attribute 25, 1
   9              		.eabi_attribute 26, 1
  10              		.eabi_attribute 30, 1
  11              		.eabi_attribute 34, 1
  12              		.eabi_attribute 18, 4
  13              		.file	"esos_stm32l4_utils.c"
  14              		.text
  15              	.Ltext0:
  16              		.cfi_sections	.debug_frame
  17              		.section	.text.__esos_hw_PRNG_u32,"ax",%progbits
  18              		.align	1
  19              		.global	__esos_hw_PRNG_u32
  20              		.arch armv7e-m
  21              		.syntax unified
  22              		.thumb
  23              		.thumb_func
  24              		.fpu fpv4-sp-d16
  26              	__esos_hw_PRNG_u32:
  27              	.LFB0:
  28              		.file 1 "C:/MinGW/msys/1.0/esos32/src/stm32l4_ocm3/esos_stm32l4_utils.c"
   1:C:/MinGW/msys/1.0/esos32/src/stm32l4_ocm3\esos_stm32l4_utils.c **** /*
   2:C:/MinGW/msys/1.0/esos32/src/stm32l4_ocm3\esos_stm32l4_utils.c ****  * "Copyright (c) 2019 J. W. Bruce ("AUTHOR(S)")"
   3:C:/MinGW/msys/1.0/esos32/src/stm32l4_ocm3\esos_stm32l4_utils.c ****  * All rights reserved.
   4:C:/MinGW/msys/1.0/esos32/src/stm32l4_ocm3\esos_stm32l4_utils.c ****  * (J. W. Bruce, jwbruce_AT_tntech.edu, Tennessee Tech University)
   5:C:/MinGW/msys/1.0/esos32/src/stm32l4_ocm3\esos_stm32l4_utils.c ****  *
   6:C:/MinGW/msys/1.0/esos32/src/stm32l4_ocm3\esos_stm32l4_utils.c ****  * Permission to use, copy, modify, and distribute this software and its
   7:C:/MinGW/msys/1.0/esos32/src/stm32l4_ocm3\esos_stm32l4_utils.c ****  * documentation for any purpose, without fee, and without written agreement is
   8:C:/MinGW/msys/1.0/esos32/src/stm32l4_ocm3\esos_stm32l4_utils.c ****  * hereby granted, provided that the above copyright notice, the following
   9:C:/MinGW/msys/1.0/esos32/src/stm32l4_ocm3\esos_stm32l4_utils.c ****  * two paragraphs and the authors appear in all copies of this software.
  10:C:/MinGW/msys/1.0/esos32/src/stm32l4_ocm3\esos_stm32l4_utils.c ****  *
  11:C:/MinGW/msys/1.0/esos32/src/stm32l4_ocm3\esos_stm32l4_utils.c ****  * IN NO EVENT SHALL THE "AUTHORS" BE LIABLE TO ANY PARTY FOR
  12:C:/MinGW/msys/1.0/esos32/src/stm32l4_ocm3\esos_stm32l4_utils.c ****  * DIRECT, INDIRECT, SPECIAL, INCIDENTAL, OR CONSEQUENTIAL DAMAGES ARISING OUT
  13:C:/MinGW/msys/1.0/esos32/src/stm32l4_ocm3\esos_stm32l4_utils.c ****  * OF THE USE OF THIS SOFTWARE AND ITS DOCUMENTATION, EVEN IF THE "AUTHORS"
  14:C:/MinGW/msys/1.0/esos32/src/stm32l4_ocm3\esos_stm32l4_utils.c ****  * HAS BEEN ADVISED OF THE POSSIBILITY OF SUCH DAMAGE.
  15:C:/MinGW/msys/1.0/esos32/src/stm32l4_ocm3\esos_stm32l4_utils.c ****  *
  16:C:/MinGW/msys/1.0/esos32/src/stm32l4_ocm3\esos_stm32l4_utils.c ****  * THE "AUTHORS" SPECIFICALLY DISCLAIMS ANY WARRANTIES,
  17:C:/MinGW/msys/1.0/esos32/src/stm32l4_ocm3\esos_stm32l4_utils.c ****  * INCLUDING, BUT NOT LIMITED TO, THE IMPLIED WARRANTIES OF MERCHANTABILITY
  18:C:/MinGW/msys/1.0/esos32/src/stm32l4_ocm3\esos_stm32l4_utils.c ****  * AND FITNESS FOR A PARTICULAR PURPOSE.  THE SOFTWARE PROVIDED HEREUNDER IS
  19:C:/MinGW/msys/1.0/esos32/src/stm32l4_ocm3\esos_stm32l4_utils.c ****  * ON AN "AS IS" BASIS, AND THE "AUTHORS" HAS NO OBLIGATION TO
  20:C:/MinGW/msys/1.0/esos32/src/stm32l4_ocm3\esos_stm32l4_utils.c ****  * PROVIDE MAINTENANCE, SUPPORT, UPDATES, ENHANCEMENTS, OR MODIFICATIONS."
  21:C:/MinGW/msys/1.0/esos32/src/stm32l4_ocm3\esos_stm32l4_utils.c ****  *
  22:C:/MinGW/msys/1.0/esos32/src/stm32l4_ocm3\esos_stm32l4_utils.c ****  * Please maintain this header in its entirety when copying/modifying
  23:C:/MinGW/msys/1.0/esos32/src/stm32l4_ocm3\esos_stm32l4_utils.c ****  * these files.
  24:C:/MinGW/msys/1.0/esos32/src/stm32l4_ocm3\esos_stm32l4_utils.c ****  *
  25:C:/MinGW/msys/1.0/esos32/src/stm32l4_ocm3\esos_stm32l4_utils.c ****  *
  26:C:/MinGW/msys/1.0/esos32/src/stm32l4_ocm3\esos_stm32l4_utils.c ****  */
  27:C:/MinGW/msys/1.0/esos32/src/stm32l4_ocm3\esos_stm32l4_utils.c **** 
  28:C:/MinGW/msys/1.0/esos32/src/stm32l4_ocm3\esos_stm32l4_utils.c **** // Documentation for this file. If the \file tag isn't present,
  29:C:/MinGW/msys/1.0/esos32/src/stm32l4_ocm3\esos_stm32l4_utils.c **** // this file won't be documented.
  30:C:/MinGW/msys/1.0/esos32/src/stm32l4_ocm3\esos_stm32l4_utils.c **** /** \file
ARM GAS  C:\Users\Travis\AppData\Local\Temp\ccEEWcRa.s 			page 2


  31:C:/MinGW/msys/1.0/esos32/src/stm32l4_ocm3\esos_stm32l4_utils.c **** * \brief STM32L4xx hardware support for various ESOS utilities
  32:C:/MinGW/msys/1.0/esos32/src/stm32l4_ocm3\esos_stm32l4_utils.c **** * random numbers, CRC, hashes, etc.  executed in hardware, *if available*
  33:C:/MinGW/msys/1.0/esos32/src/stm32l4_ocm3\esos_stm32l4_utils.c **** */
  34:C:/MinGW/msys/1.0/esos32/src/stm32l4_ocm3\esos_stm32l4_utils.c **** 
  35:C:/MinGW/msys/1.0/esos32/src/stm32l4_ocm3\esos_stm32l4_utils.c **** // Include any HW-specific header files to pick up the HW register
  36:C:/MinGW/msys/1.0/esos32/src/stm32l4_ocm3\esos_stm32l4_utils.c **** //  definitions, macros, etc.
  37:C:/MinGW/msys/1.0/esos32/src/stm32l4_ocm3\esos_stm32l4_utils.c **** #include    "esos_stm32l4.h"
  38:C:/MinGW/msys/1.0/esos32/src/stm32l4_ocm3\esos_stm32l4_utils.c **** #include	"esos_stm32l4_utils.h"
  39:C:/MinGW/msys/1.0/esos32/src/stm32l4_ocm3\esos_stm32l4_utils.c **** 
  40:C:/MinGW/msys/1.0/esos32/src/stm32l4_ocm3\esos_stm32l4_utils.c **** // VARIABLES
  41:C:/MinGW/msys/1.0/esos32/src/stm32l4_ocm3\esos_stm32l4_utils.c **** #ifdef STM32L452xx
  42:C:/MinGW/msys/1.0/esos32/src/stm32l4_ocm3\esos_stm32l4_utils.c **** //RNG_HandleTypeDef hrng;
  43:C:/MinGW/msys/1.0/esos32/src/stm32l4_ocm3\esos_stm32l4_utils.c **** #endif
  44:C:/MinGW/msys/1.0/esos32/src/stm32l4_ocm3\esos_stm32l4_utils.c **** 
  45:C:/MinGW/msys/1.0/esos32/src/stm32l4_ocm3\esos_stm32l4_utils.c **** /***************************************************
  46:C:/MinGW/msys/1.0/esos32/src/stm32l4_ocm3\esos_stm32l4_utils.c ****  * 
  47:C:/MinGW/msys/1.0/esos32/src/stm32l4_ocm3\esos_stm32l4_utils.c ****  * HARDWARE-specific ESOS utility functions
  48:C:/MinGW/msys/1.0/esos32/src/stm32l4_ocm3\esos_stm32l4_utils.c ****  * 
  49:C:/MinGW/msys/1.0/esos32/src/stm32l4_ocm3\esos_stm32l4_utils.c ****  * *************************************************/
  50:C:/MinGW/msys/1.0/esos32/src/stm32l4_ocm3\esos_stm32l4_utils.c **** 
  51:C:/MinGW/msys/1.0/esos32/src/stm32l4_ocm3\esos_stm32l4_utils.c **** /* ******************************************************
  52:C:/MinGW/msys/1.0/esos32/src/stm32l4_ocm3\esos_stm32l4_utils.c **** * \brief HW pseudo-random number generation...
  53:C:/MinGW/msys/1.0/esos32/src/stm32l4_ocm3\esos_stm32l4_utils.c **** *
  54:C:/MinGW/msys/1.0/esos32/src/stm32l4_ocm3\esos_stm32l4_utils.c **** * \note All hardware must implement this function.
  55:C:/MinGW/msys/1.0/esos32/src/stm32l4_ocm3\esos_stm32l4_utils.c **** * 
  56:C:/MinGW/msys/1.0/esos32/src/stm32l4_ocm3\esos_stm32l4_utils.c **** * If the underlying hardware has PRNG on-board, it can
  57:C:/MinGW/msys/1.0/esos32/src/stm32l4_ocm3\esos_stm32l4_utils.c **** * implement it here and return the uint32 "random" number.
  58:C:/MinGW/msys/1.0/esos32/src/stm32l4_ocm3\esos_stm32l4_utils.c **** * 
  59:C:/MinGW/msys/1.0/esos32/src/stm32l4_ocm3\esos_stm32l4_utils.c **** * If the underlying HW does not have PRNG on-board, it
  60:C:/MinGW/msys/1.0/esos32/src/stm32l4_ocm3\esos_stm32l4_utils.c **** * can call the hidden ESOS function for software RNG
  61:C:/MinGW/msys/1.0/esos32/src/stm32l4_ocm3\esos_stm32l4_utils.c **** *         uint32 __esos_get_PRNG_RandomUint32(void)
  62:C:/MinGW/msys/1.0/esos32/src/stm32l4_ocm3\esos_stm32l4_utils.c **** * and return that value.
  63:C:/MinGW/msys/1.0/esos32/src/stm32l4_ocm3\esos_stm32l4_utils.c **** *
  64:C:/MinGW/msys/1.0/esos32/src/stm32l4_ocm3\esos_stm32l4_utils.c **** ********************************************************/
  65:C:/MinGW/msys/1.0/esos32/src/stm32l4_ocm3\esos_stm32l4_utils.c **** uint32_t   __esos_hw_PRNG_u32(void) {
  29              		.loc 1 65 37 view -0
  30              		.cfi_startproc
  31              		@ args = 0, pretend = 0, frame = 0
  32              		@ frame_needed = 0, uses_anonymous_args = 0
  33 0000 08B5     		push	{r3, lr}
  34              	.LCFI0:
  35              		.cfi_def_cfa_offset 8
  36              		.cfi_offset 3, -8
  37              		.cfi_offset 14, -4
  66:C:/MinGW/msys/1.0/esos32/src/stm32l4_ocm3\esos_stm32l4_utils.c **** //#ifdef STM32L452xx
  67:C:/MinGW/msys/1.0/esos32/src/stm32l4_ocm3\esos_stm32l4_utils.c **** #if 0
  68:C:/MinGW/msys/1.0/esos32/src/stm32l4_ocm3\esos_stm32l4_utils.c ****   uint32_t		u32_randomNum;
  69:C:/MinGW/msys/1.0/esos32/src/stm32l4_ocm3\esos_stm32l4_utils.c ****   
  70:C:/MinGW/msys/1.0/esos32/src/stm32l4_ocm3\esos_stm32l4_utils.c ****   #if 1
  71:C:/MinGW/msys/1.0/esos32/src/stm32l4_ocm3\esos_stm32l4_utils.c **** 	rng_get_random(&u32_randomNum);
  72:C:/MinGW/msys/1.0/esos32/src/stm32l4_ocm3\esos_stm32l4_utils.c ****   #else
  73:C:/MinGW/msys/1.0/esos32/src/stm32l4_ocm3\esos_stm32l4_utils.c ****     // not sure why this doesn't work...... should be
  74:C:/MinGW/msys/1.0/esos32/src/stm32l4_ocm3\esos_stm32l4_utils.c ****     // faster than above as we will read last RNG and then
  75:C:/MinGW/msys/1.0/esos32/src/stm32l4_ocm3\esos_stm32l4_utils.c ****     //  kick off the RNG hardware to make a new RNG before
  76:C:/MinGW/msys/1.0/esos32/src/stm32l4_ocm3\esos_stm32l4_utils.c ****     //  our next read.   Need to study HAL more to figure this out.
  77:C:/MinGW/msys/1.0/esos32/src/stm32l4_ocm3\esos_stm32l4_utils.c **** 
  78:C:/MinGW/msys/1.0/esos32/src/stm32l4_ocm3\esos_stm32l4_utils.c ****   #endif
ARM GAS  C:\Users\Travis\AppData\Local\Temp\ccEEWcRa.s 			page 3


  79:C:/MinGW/msys/1.0/esos32/src/stm32l4_ocm3\esos_stm32l4_utils.c ****   return u32_randomNum;
  80:C:/MinGW/msys/1.0/esos32/src/stm32l4_ocm3\esos_stm32l4_utils.c **** #else
  81:C:/MinGW/msys/1.0/esos32/src/stm32l4_ocm3\esos_stm32l4_utils.c ****   return ( __esos_get_PRNG_RandomUint32() );
  38              		.loc 1 81 3 view .LVU1
  39              		.loc 1 81 12 is_stmt 0 view .LVU2
  40 0002 FFF7FEFF 		bl	__esos_get_PRNG_RandomUint32
  41              	.LVL0:
  82:C:/MinGW/msys/1.0/esos32/src/stm32l4_ocm3\esos_stm32l4_utils.c **** #endif
  83:C:/MinGW/msys/1.0/esos32/src/stm32l4_ocm3\esos_stm32l4_utils.c **** } // end __esos_hw_PRNG_u32(void)
  42              		.loc 1 83 1 view .LVU3
  43 0006 08BD     		pop	{r3, pc}
  44              		.cfi_endproc
  45              	.LFE0:
  47              		.section	.text.__esos_hw_config_PRNG,"ax",%progbits
  48              		.align	1
  49              		.global	__esos_hw_config_PRNG
  50              		.syntax unified
  51              		.thumb
  52              		.thumb_func
  53              		.fpu fpv4-sp-d16
  55              	__esos_hw_config_PRNG:
  56              	.LFB1:
  84:C:/MinGW/msys/1.0/esos32/src/stm32l4_ocm3\esos_stm32l4_utils.c **** 
  85:C:/MinGW/msys/1.0/esos32/src/stm32l4_ocm3\esos_stm32l4_utils.c **** 
  86:C:/MinGW/msys/1.0/esos32/src/stm32l4_ocm3\esos_stm32l4_utils.c **** /* *******************************************************
  87:C:/MinGW/msys/1.0/esos32/src/stm32l4_ocm3\esos_stm32l4_utils.c **** * \brief user-provided function to config the HW RNG
  88:C:/MinGW/msys/1.0/esos32/src/stm32l4_ocm3\esos_stm32l4_utils.c **** *
  89:C:/MinGW/msys/1.0/esos32/src/stm32l4_ocm3\esos_stm32l4_utils.c **** * \note All hardware must implement this function.
  90:C:/MinGW/msys/1.0/esos32/src/stm32l4_ocm3\esos_stm32l4_utils.c **** * 
  91:C:/MinGW/msys/1.0/esos32/src/stm32l4_ocm3\esos_stm32l4_utils.c **** * If the underlying hardware has PRNG on-board, HW-specific code
  92:C:/MinGW/msys/1.0/esos32/src/stm32l4_ocm3\esos_stm32l4_utils.c **** * for intializing the PRNG hardware goes here.
  93:C:/MinGW/msys/1.0/esos32/src/stm32l4_ocm3\esos_stm32l4_utils.c **** * 
  94:C:/MinGW/msys/1.0/esos32/src/stm32l4_ocm3\esos_stm32l4_utils.c **** * If the underlying HW does not have PRNG on-board, this
  95:C:/MinGW/msys/1.0/esos32/src/stm32l4_ocm3\esos_stm32l4_utils.c **** * function should just return.
  96:C:/MinGW/msys/1.0/esos32/src/stm32l4_ocm3\esos_stm32l4_utils.c **** *
  97:C:/MinGW/msys/1.0/esos32/src/stm32l4_ocm3\esos_stm32l4_utils.c **** *******************************************************  */
  98:C:/MinGW/msys/1.0/esos32/src/stm32l4_ocm3\esos_stm32l4_utils.c **** void   __esos_hw_config_PRNG(void) {
  57              		.loc 1 98 36 is_stmt 1 view -0
  58              		.cfi_startproc
  59              		@ args = 0, pretend = 0, frame = 0
  60              		@ frame_needed = 0, uses_anonymous_args = 0
  61 0000 08B5     		push	{r3, lr}
  62              	.LCFI1:
  63              		.cfi_def_cfa_offset 8
  64              		.cfi_offset 3, -8
  65              		.cfi_offset 14, -4
  99:C:/MinGW/msys/1.0/esos32/src/stm32l4_ocm3\esos_stm32l4_utils.c **** #ifdef STM32L452xx	
 100:C:/MinGW/msys/1.0/esos32/src/stm32l4_ocm3\esos_stm32l4_utils.c ****   
 101:C:/MinGW/msys/1.0/esos32/src/stm32l4_ocm3\esos_stm32l4_utils.c **** 	//HAL VERSION
 102:C:/MinGW/msys/1.0/esos32/src/stm32l4_ocm3\esos_stm32l4_utils.c **** 	/*hrng.Instance = RNG;
 103:C:/MinGW/msys/1.0/esos32/src/stm32l4_ocm3\esos_stm32l4_utils.c ****   if (HAL_RNG_Init(&hrng) != HAL_OK)
 104:C:/MinGW/msys/1.0/esos32/src/stm32l4_ocm3\esos_stm32l4_utils.c ****   {
 105:C:/MinGW/msys/1.0/esos32/src/stm32l4_ocm3\esos_stm32l4_utils.c ****     Error_Handler();
 106:C:/MinGW/msys/1.0/esos32/src/stm32l4_ocm3\esos_stm32l4_utils.c ****   }*/
 107:C:/MinGW/msys/1.0/esos32/src/stm32l4_ocm3\esos_stm32l4_utils.c **** 	
 108:C:/MinGW/msys/1.0/esos32/src/stm32l4_ocm3\esos_stm32l4_utils.c **** 	///////////////
 109:C:/MinGW/msys/1.0/esos32/src/stm32l4_ocm3\esos_stm32l4_utils.c **** 	//CM3 VERSION//
ARM GAS  C:\Users\Travis\AppData\Local\Temp\ccEEWcRa.s 			page 4


 110:C:/MinGW/msys/1.0/esos32/src/stm32l4_ocm3\esos_stm32l4_utils.c **** 	///////////////
 111:C:/MinGW/msys/1.0/esos32/src/stm32l4_ocm3\esos_stm32l4_utils.c **** 	rng_enable();
  66              		.loc 1 111 2 view .LVU5
  67 0002 FFF7FEFF 		bl	rng_enable
  68              	.LVL1:
 112:C:/MinGW/msys/1.0/esos32/src/stm32l4_ocm3\esos_stm32l4_utils.c **** 	
 113:C:/MinGW/msys/1.0/esos32/src/stm32l4_ocm3\esos_stm32l4_utils.c **** #endif
 114:C:/MinGW/msys/1.0/esos32/src/stm32l4_ocm3\esos_stm32l4_utils.c **** }  // end __esos_hw_config_PRNG(void)
  69              		.loc 1 114 1 is_stmt 0 view .LVU6
  70 0006 08BD     		pop	{r3, pc}
  71              		.cfi_endproc
  72              	.LFE1:
  74              		.section	.text.__esos_hw_set_PRNG_Seed,"ax",%progbits
  75              		.align	1
  76              		.global	__esos_hw_set_PRNG_Seed
  77              		.syntax unified
  78              		.thumb
  79              		.thumb_func
  80              		.fpu fpv4-sp-d16
  82              	__esos_hw_set_PRNG_Seed:
  83              	.LVL2:
  84              	.LFB2:
 115:C:/MinGW/msys/1.0/esos32/src/stm32l4_ocm3\esos_stm32l4_utils.c **** 
 116:C:/MinGW/msys/1.0/esos32/src/stm32l4_ocm3\esos_stm32l4_utils.c **** /* *******************************************************
 117:C:/MinGW/msys/1.0/esos32/src/stm32l4_ocm3\esos_stm32l4_utils.c **** * \brief seed the HW pseudo-random number generator...
 118:C:/MinGW/msys/1.0/esos32/src/stm32l4_ocm3\esos_stm32l4_utils.c **** *
 119:C:/MinGW/msys/1.0/esos32/src/stm32l4_ocm3\esos_stm32l4_utils.c **** * \note All hardware must implement this function.
 120:C:/MinGW/msys/1.0/esos32/src/stm32l4_ocm3\esos_stm32l4_utils.c **** * 
 121:C:/MinGW/msys/1.0/esos32/src/stm32l4_ocm3\esos_stm32l4_utils.c **** * If the underlying hardware has PRNG on-board, it can
 122:C:/MinGW/msys/1.0/esos32/src/stm32l4_ocm3\esos_stm32l4_utils.c **** * do what it needs to "seed" the PRNG.
 123:C:/MinGW/msys/1.0/esos32/src/stm32l4_ocm3\esos_stm32l4_utils.c **** * 
 124:C:/MinGW/msys/1.0/esos32/src/stm32l4_ocm3\esos_stm32l4_utils.c **** * If the underlying HW does not have PRNG on-board, it
 125:C:/MinGW/msys/1.0/esos32/src/stm32l4_ocm3\esos_stm32l4_utils.c **** * can call the hidden ESOS function for seeding the
 126:C:/MinGW/msys/1.0/esos32/src/stm32l4_ocm3\esos_stm32l4_utils.c **** * ESOS software RNG function
 127:C:/MinGW/msys/1.0/esos32/src/stm32l4_ocm3\esos_stm32l4_utils.c **** *         void __esos_setSWRNGU32Seed(uint32)
 128:C:/MinGW/msys/1.0/esos32/src/stm32l4_ocm3\esos_stm32l4_utils.c **** *
 129:C:/MinGW/msys/1.0/esos32/src/stm32l4_ocm3\esos_stm32l4_utils.c **** *  \sa __esos_get_PRNG_RandomUint32
 130:C:/MinGW/msys/1.0/esos32/src/stm32l4_ocm3\esos_stm32l4_utils.c **** *
 131:C:/MinGW/msys/1.0/esos32/src/stm32l4_ocm3\esos_stm32l4_utils.c **** ********************************************************** */
 132:C:/MinGW/msys/1.0/esos32/src/stm32l4_ocm3\esos_stm32l4_utils.c **** void __esos_hw_set_PRNG_Seed(uint32_t u32_seed) {
  85              		.loc 1 132 49 is_stmt 1 view -0
  86              		.cfi_startproc
  87              		@ args = 0, pretend = 0, frame = 0
  88              		@ frame_needed = 0, uses_anonymous_args = 0
  89              		@ link register save eliminated.
 133:C:/MinGW/msys/1.0/esos32/src/stm32l4_ocm3\esos_stm32l4_utils.c **** #ifdef STM32L452xx
 134:C:/MinGW/msys/1.0/esos32/src/stm32l4_ocm3\esos_stm32l4_utils.c ****    // RNG hardware doesn't let us set the seed
 135:C:/MinGW/msys/1.0/esos32/src/stm32l4_ocm3\esos_stm32l4_utils.c **** #else
 136:C:/MinGW/msys/1.0/esos32/src/stm32l4_ocm3\esos_stm32l4_utils.c ****    __esos_set_PRNG_U32Seed(u32_seed);
 137:C:/MinGW/msys/1.0/esos32/src/stm32l4_ocm3\esos_stm32l4_utils.c **** #endif
 138:C:/MinGW/msys/1.0/esos32/src/stm32l4_ocm3\esos_stm32l4_utils.c ****   
 139:C:/MinGW/msys/1.0/esos32/src/stm32l4_ocm3\esos_stm32l4_utils.c **** } // end __esos_hw_setPRNG_Seed(uint32)
  90              		.loc 1 139 1 view .LVU8
  91 0000 7047     		bx	lr
  92              		.cfi_endproc
  93              	.LFE2:
  95              		.text
ARM GAS  C:\Users\Travis\AppData\Local\Temp\ccEEWcRa.s 			page 5


  96              	.Letext0:
  97              		.file 2 "c:\\program files (x86)\\gnu tools arm embedded\\9 2019-q4-major\\arm-none-eabi\\include\
  98              		.file 3 "c:\\program files (x86)\\gnu tools arm embedded\\9 2019-q4-major\\arm-none-eabi\\include\
  99              		.file 4 "C:/MinGW/msys/1.0/libopencm3-master/libopencm3-master/include/libopencm3/stm32/l4/rcc.h"
 100              		.file 5 "C:/MinGW/msys/1.0/esos32/include/esos_utils.h"
 101              		.file 6 "C:/MinGW/msys/1.0/esos32/include/lc-switch.h"
 102              		.file 7 "C:/MinGW/msys/1.0/esos32/include/esos_cb.h"
 103              		.file 8 "C:/MinGW/msys/1.0/esos32/include/esos_mail.h"
 104              		.file 9 "C:/MinGW/msys/1.0/esos32/include/esos_task.h"
 105              		.file 10 "C:/MinGW/msys/1.0/esos32/include/esos_comm.h"
 106              		.file 11 "C:/MinGW/msys/1.0/esos32/include/esos.h"
 107              		.file 12 "C:/MinGW/msys/1.0/esos32/include/stm32l4_ocm3/esos_stm32l4_rs232.h"
 108              		.file 13 "C:/MinGW/msys/1.0/libopencm3-master/libopencm3-master/include/libopencm3/stm32/common/rn
ARM GAS  C:\Users\Travis\AppData\Local\Temp\ccEEWcRa.s 			page 6

