ARM GAS  C:\Users\Travis\AppData\Local\Temp\ccPHtQoW.s 			page 1


   1              		.cpu cortex-m4
   2              		.eabi_attribute 27, 1
   3              		.eabi_attribute 28, 1
   4              		.eabi_attribute 20, 1
   5              		.eabi_attribute 21, 1
   6              		.eabi_attribute 23, 3
   7              		.eabi_attribute 24, 1
   8              		.eabi_attribute 25, 1
   9              		.eabi_attribute 26, 1
  10              		.eabi_attribute 30, 1
  11              		.eabi_attribute 34, 1
  12              		.eabi_attribute 18, 4
  13              		.file	"semaphore1_app.c"
  14              		.text
  15              	.Ltext0:
  16              		.cfi_sections	.debug_frame
  17              		.section	.text.task_flash_LED,"ax",%progbits
  18              		.align	1
  19              		.global	task_flash_LED
  20              		.arch armv7e-m
  21              		.syntax unified
  22              		.thumb
  23              		.thumb_func
  24              		.fpu fpv4-sp-d16
  26              	task_flash_LED:
  27              	.LVL0:
  28              	.LFB0:
  29              		.file 1 "src/semaphore1_app.c"
   1:src/semaphore1_app.c **** /*
   2:src/semaphore1_app.c ****  * "Copyright (c) 2019 J. W. Bruce ("AUTHOR(S)")"
   3:src/semaphore1_app.c ****  * All rights reserved.
   4:src/semaphore1_app.c ****  * (J. W. Bruce, jwbruce_AT_tntech.edu, Tennessee Tech University)
   5:src/semaphore1_app.c ****  *
   6:src/semaphore1_app.c ****  * Permission to use, copy, modify, and distribute this software and its
   7:src/semaphore1_app.c ****  * documentation for any purpose, without fee, and without written agreement is
   8:src/semaphore1_app.c ****  * hereby granted, provided that the above copyright notice, the following
   9:src/semaphore1_app.c ****  * two paragraphs and the authors appear in all copies of this software.
  10:src/semaphore1_app.c ****  *
  11:src/semaphore1_app.c ****  * IN NO EVENT SHALL THE "AUTHORS" BE LIABLE TO ANY PARTY FOR
  12:src/semaphore1_app.c ****  * DIRECT, INDIRECT, SPECIAL, INCIDENTAL, OR CONSEQUENTIAL DAMAGES ARISING OUT
  13:src/semaphore1_app.c ****  * OF THE USE OF THIS SOFTWARE AND ITS DOCUMENTATION, EVEN IF THE "AUTHORS"
  14:src/semaphore1_app.c ****  * HAS BEEN ADVISED OF THE POSSIBILITY OF SUCH DAMAGE.
  15:src/semaphore1_app.c ****  *
  16:src/semaphore1_app.c ****  * THE "AUTHORS" SPECIFICALLY DISCLAIMS ANY WARRANTIES,
  17:src/semaphore1_app.c ****  * INCLUDING, BUT NOT LIMITED TO, THE IMPLIED WARRANTIES OF MERCHANTABILITY
  18:src/semaphore1_app.c ****  * AND FITNESS FOR A PARTICULAR PURPOSE.  THE SOFTWARE PROVIDED HEREUNDER IS
  19:src/semaphore1_app.c ****  * ON AN "AS IS" BASIS, AND THE "AUTHORS" HAS NO OBLIGATION TO
  20:src/semaphore1_app.c ****  * PROVIDE MAINTENANCE, SUPPORT, UPDATES, ENHANCEMENTS, OR MODIFICATIONS."
  21:src/semaphore1_app.c ****  *
  22:src/semaphore1_app.c ****  * Please maintain this header in its entirety when copying/modifying
  23:src/semaphore1_app.c ****  * these files.
  24:src/semaphore1_app.c ****  *
  25:src/semaphore1_app.c ****  *
  26:src/semaphore1_app.c ****  */
  27:src/semaphore1_app.c **** 
  28:src/semaphore1_app.c **** // #define ESOS_USE_IRQS
  29:src/semaphore1_app.c **** 
ARM GAS  C:\Users\Travis\AppData\Local\Temp\ccPHtQoW.s 			page 2


  30:src/semaphore1_app.c **** // INCLUDEs go here  (First include the main esos.h file)
  31:src/semaphore1_app.c **** //      After that, the user can include what they need
  32:src/semaphore1_app.c **** #include	"esos.h"
  33:src/semaphore1_app.c **** #include	"user_app.h"
  34:src/semaphore1_app.c **** #ifdef __linux
  35:src/semaphore1_app.c **** #include    "esos_pc.h"
  36:src/semaphore1_app.c **** #include    "esos_pc_stdio.h"
  37:src/semaphore1_app.c **** // INCLUDE these so our printf and other PC hacks work
  38:src/semaphore1_app.c **** #include <stdio.h>
  39:src/semaphore1_app.c **** #include <sys/select.h>
  40:src/semaphore1_app.c **** #include <termios.h>
  41:src/semaphore1_app.c **** #include <unistd.h>
  42:src/semaphore1_app.c **** #else
  43:src/semaphore1_app.c **** #include    "esos_stm32l4.h"
  44:src/semaphore1_app.c **** #include    "esos_stm32l4_rs232.h"
  45:src/semaphore1_app.c **** #endif
  46:src/semaphore1_app.c **** 
  47:src/semaphore1_app.c **** 
  48:src/semaphore1_app.c **** // DEFINEs go here
  49:src/semaphore1_app.c **** 
  50:src/semaphore1_app.c **** /*
  51:src/semaphore1_app.c ****  * PROTOTYPEs go here
  52:src/semaphore1_app.c ****  *
  53:src/semaphore1_app.c ****  */
  54:src/semaphore1_app.c **** void __user_init_hw( void );
  55:src/semaphore1_app.c **** uint32_t getRandomDelay(void);
  56:src/semaphore1_app.c **** 
  57:src/semaphore1_app.c **** // GLOBALs go here
  58:src/semaphore1_app.c **** //  Generally, the user-created semaphores will be defined/allocated here
  59:src/semaphore1_app.c **** char psz_CRNL[3]= {0x0D, 0x0A, 0};
  60:src/semaphore1_app.c **** char psz_T1[] = "Task 1: ";
  61:src/semaphore1_app.c **** char psz_T2[] = "Task 2: ";
  62:src/semaphore1_app.c **** 
  63:src/semaphore1_app.c **** ESOS_SEMAPHORE( sem_T2CanRun );
  64:src/semaphore1_app.c **** 
  65:src/semaphore1_app.c **** // timer globals
  66:src/semaphore1_app.c **** 
  67:src/semaphore1_app.c **** #ifdef _linux
  68:src/semaphore1_app.c **** /*
  69:src/semaphore1_app.c ****  * Simulate the timer ISR found on a MCU
  70:src/semaphore1_app.c ****  *   The PC doesn't have a timer ISR, so this task will periodically
  71:src/semaphore1_app.c ****  *   call the timer services callback instead.
  72:src/semaphore1_app.c ****  *   USED ONLY FOR DEVELOPMENT AND TESTING ON PC.
  73:src/semaphore1_app.c ****  *   Real MCU hardware doesn't need this task
  74:src/semaphore1_app.c ****  */
  75:src/semaphore1_app.c **** ESOS_USER_TASK( __simulated_isr ) {
  76:src/semaphore1_app.c ****   ESOS_TASK_BEGIN();
  77:src/semaphore1_app.c ****   while (TRUE) {
  78:src/semaphore1_app.c ****     // call the ESOS timer services callback just like a real H/W ISR would
  79:src/semaphore1_app.c ****     __esos_tmrSvcsExecute();
  80:src/semaphore1_app.c ****     ESOS_TASK_WAIT_TICKS(  1 );
  81:src/semaphore1_app.c **** 
  82:src/semaphore1_app.c ****   } // endof while(TRUE)
  83:src/semaphore1_app.c ****   ESOS_TASK_END();
  84:src/semaphore1_app.c **** } // end child_task
  85:src/semaphore1_app.c **** #endif
  86:src/semaphore1_app.c **** 
ARM GAS  C:\Users\Travis\AppData\Local\Temp\ccPHtQoW.s 			page 3


  87:src/semaphore1_app.c **** ESOS_USER_TASK( task_flash_LED ) {
  30              		.loc 1 87 34 view -0
  31              		.cfi_startproc
  32              		@ args = 0, pretend = 0, frame = 0
  33              		@ frame_needed = 0, uses_anonymous_args = 0
  34              		.loc 1 87 34 is_stmt 0 view .LVU1
  35 0000 38B5     		push	{r3, r4, r5, lr}
  36              	.LCFI0:
  37              		.cfi_def_cfa_offset 16
  38              		.cfi_offset 3, -16
  39              		.cfi_offset 4, -12
  40              		.cfi_offset 5, -8
  41              		.cfi_offset 14, -4
  42 0002 0446     		mov	r4, r0
  88:src/semaphore1_app.c ****   ESOS_TASK_BEGIN();
  43              		.loc 1 88 3 is_stmt 1 view .LVU2
  44 0004 8378     		ldrb	r3, [r0, #2]	@ zero_extendqisi2
  45 0006 63F07F03 		orn	r3, r3, #127
  46 000a 8370     		strb	r3, [r0, #2]
  47              		.loc 1 88 3 view .LVU3
  48 000c 0388     		ldrh	r3, [r0]
  49 000e 5D2B     		cmp	r3, #93
  50 0010 27D0     		beq	.L2
  51 0012 5F2B     		cmp	r3, #95
  52 0014 3CD0     		beq	.L3
  53 0016 93B1     		cbz	r3, .L10
  89:src/semaphore1_app.c ****   while (TRUE) {
  90:src/semaphore1_app.c ****     gpio_toggle(LED2_GPIO_Port,LED2_Pin);
  91:src/semaphore1_app.c ****     if(gpio_get(SW1_GPIO_Port,SW1_Pin) == 0)
  92:src/semaphore1_app.c ****     {
  93:src/semaphore1_app.c ****       ESOS_TASK_WAIT_TICKS( 125 );
  94:src/semaphore1_app.c ****     } else {
  95:src/semaphore1_app.c ****       ESOS_TASK_WAIT_TICKS( 600 );
  96:src/semaphore1_app.c ****     }
  97:src/semaphore1_app.c ****   } // endof while(TRUE)
  98:src/semaphore1_app.c ****   ESOS_TASK_END();
  54              		.loc 1 98 3 view .LVU4
  55              		.loc 1 98 3 view .LVU5
  56 0018 0823     		movs	r3, #8
  57 001a 8370     		strb	r3, [r0, #2]
  58              		.loc 1 98 3 view .LVU6
  59 001c 0023     		movs	r3, #0
  60 001e 0380     		strh	r3, [r0]	@ movhi
  61              		.loc 1 98 3 view .LVU7
  62              		.loc 1 98 3 view .LVU8
  63              		.loc 1 98 3 view .LVU9
  64 0020 0325     		movs	r5, #3
  65              	.LVL1:
  66              	.L7:
  67              		.loc 1 98 18 discriminator 1 view .LVU10
  99:src/semaphore1_app.c **** } // end task_flash_LED()
  68              		.loc 1 99 1 is_stmt 0 discriminator 1 view .LVU11
  69 0022 2846     		mov	r0, r5
  70 0024 38BD     		pop	{r3, r4, r5, pc}
  71              	.LVL2:
  72              	.L15:
  93:src/semaphore1_app.c ****     } else {
ARM GAS  C:\Users\Travis\AppData\Local\Temp\ccPHtQoW.s 			page 4


  73              		.loc 1 93 7 is_stmt 1 discriminator 2 view .LVU12
  74 0026 0423     		movs	r3, #4
  75 0028 A370     		strb	r3, [r4, #2]
  93:src/semaphore1_app.c ****     } else {
  76              		.loc 1 93 7 discriminator 2 view .LVU13
  77 002a 0325     		movs	r5, #3
  78 002c F9E7     		b	.L7
  79              	.L8:
  93:src/semaphore1_app.c ****     } else {
  80              		.loc 1 93 7 discriminator 5 view .LVU14
  81 002e A378     		ldrb	r3, [r4, #2]	@ zero_extendqisi2
  82 0030 43F00103 		orr	r3, r3, #1
  83 0034 A370     		strb	r3, [r4, #2]
  84              	.L9:
  93:src/semaphore1_app.c ****     } else {
  85              		.loc 1 93 7 discriminator 7 view .LVU15
  86 0036 A378     		ldrb	r3, [r4, #2]	@ zero_extendqisi2
  87 0038 13F0010F 		tst	r3, #1
  88 003c F1D1     		bne	.L7
  89              	.L10:
  88:src/semaphore1_app.c ****   while (TRUE) {
  90              		.loc 1 88 20 discriminator 1 view .LVU16
  89:src/semaphore1_app.c ****     gpio_toggle(LED2_GPIO_Port,LED2_Pin);
  91              		.loc 1 89 3 discriminator 1 view .LVU17
  90:src/semaphore1_app.c ****     if(gpio_get(SW1_GPIO_Port,SW1_Pin) == 0)
  92              		.loc 1 90 5 discriminator 1 view .LVU18
  93 003e 2021     		movs	r1, #32
  94 0040 4FF09040 		mov	r0, #1207959552
  95 0044 FFF7FEFF 		bl	gpio_toggle
  96              	.LVL3:
  91:src/semaphore1_app.c ****     {
  97              		.loc 1 91 5 discriminator 1 view .LVU19
  91:src/semaphore1_app.c ****     {
  98              		.loc 1 91 8 is_stmt 0 discriminator 1 view .LVU20
  99 0048 4FF40051 		mov	r1, #8192
 100 004c 1E48     		ldr	r0, .L17
 101 004e FFF7FEFF 		bl	gpio_get
 102              	.LVL4:
  91:src/semaphore1_app.c ****     {
 103              		.loc 1 91 7 discriminator 1 view .LVU21
 104 0052 A8B9     		cbnz	r0, .L5
  93:src/semaphore1_app.c ****     } else {
 105              		.loc 1 93 7 is_stmt 1 view .LVU22
  93:src/semaphore1_app.c ****     } else {
 106              		.loc 1 93 7 view .LVU23
 107 0054 FFF7FEFF 		bl	__esos_hw_GetSystemTickCount
 108              	.LVL5:
 109 0058 A060     		str	r0, [r4, #8]
  93:src/semaphore1_app.c ****     } else {
 110              		.loc 1 93 7 view .LVU24
 111 005a 7D23     		movs	r3, #125
 112 005c E360     		str	r3, [r4, #12]
  93:src/semaphore1_app.c ****     } else {
 113              		.loc 1 93 7 view .LVU25
  93:src/semaphore1_app.c ****     } else {
 114              		.loc 1 93 7 view .LVU26
 115 005e 5D23     		movs	r3, #93
ARM GAS  C:\Users\Travis\AppData\Local\Temp\ccPHtQoW.s 			page 5


 116 0060 2380     		strh	r3, [r4]	@ movhi
 117              	.L2:
  93:src/semaphore1_app.c ****     } else {
 118              		.loc 1 93 7 discriminator 1 view .LVU27
  93:src/semaphore1_app.c ****     } else {
 119              		.loc 1 93 7 discriminator 1 view .LVU28
 120 0062 A578     		ldrb	r5, [r4, #2]	@ zero_extendqisi2
 121 0064 15F00405 		ands	r5, r5, #4
 122 0068 DDD1     		bne	.L15
  93:src/semaphore1_app.c ****     } else {
 123              		.loc 1 93 7 discriminator 3 view .LVU29
 124 006a E168     		ldr	r1, [r4, #12]
 125 006c A068     		ldr	r0, [r4, #8]
 126 006e FFF7FEFF 		bl	__esos_hasTickDurationPassed
 127              	.LVL6:
 128 0072 0028     		cmp	r0, #0
 129 0074 DBD0     		beq	.L8
  93:src/semaphore1_app.c ****     } else {
 130              		.loc 1 93 7 discriminator 4 view .LVU30
 131 0076 A378     		ldrb	r3, [r4, #2]	@ zero_extendqisi2
 132 0078 23F00103 		bic	r3, r3, #1
 133 007c A370     		strb	r3, [r4, #2]
 134 007e DAE7     		b	.L9
 135              	.L5:
  95:src/semaphore1_app.c ****     }
 136              		.loc 1 95 7 view .LVU31
  95:src/semaphore1_app.c ****     }
 137              		.loc 1 95 7 view .LVU32
 138 0080 FFF7FEFF 		bl	__esos_hw_GetSystemTickCount
 139              	.LVL7:
 140 0084 A060     		str	r0, [r4, #8]
  95:src/semaphore1_app.c ****     }
 141              		.loc 1 95 7 view .LVU33
 142 0086 4FF41673 		mov	r3, #600
 143 008a E360     		str	r3, [r4, #12]
  95:src/semaphore1_app.c ****     }
 144              		.loc 1 95 7 view .LVU34
  95:src/semaphore1_app.c ****     }
 145              		.loc 1 95 7 view .LVU35
 146 008c 5F23     		movs	r3, #95
 147 008e 2380     		strh	r3, [r4]	@ movhi
 148              	.L3:
  95:src/semaphore1_app.c ****     }
 149              		.loc 1 95 7 discriminator 1 view .LVU36
  95:src/semaphore1_app.c ****     }
 150              		.loc 1 95 7 discriminator 1 view .LVU37
 151 0090 A578     		ldrb	r5, [r4, #2]	@ zero_extendqisi2
 152 0092 15F00405 		ands	r5, r5, #4
 153 0096 0DD1     		bne	.L16
  95:src/semaphore1_app.c ****     }
 154              		.loc 1 95 7 discriminator 3 view .LVU38
 155 0098 E168     		ldr	r1, [r4, #12]
 156 009a A068     		ldr	r0, [r4, #8]
 157 009c FFF7FEFF 		bl	__esos_hasTickDurationPassed
 158              	.LVL8:
 159 00a0 60B1     		cbz	r0, .L12
  95:src/semaphore1_app.c ****     }
ARM GAS  C:\Users\Travis\AppData\Local\Temp\ccPHtQoW.s 			page 6


 160              		.loc 1 95 7 discriminator 4 view .LVU39
 161 00a2 A378     		ldrb	r3, [r4, #2]	@ zero_extendqisi2
 162 00a4 23F00103 		bic	r3, r3, #1
 163 00a8 A370     		strb	r3, [r4, #2]
 164              	.L13:
  95:src/semaphore1_app.c ****     }
 165              		.loc 1 95 7 discriminator 7 view .LVU40
 166 00aa A378     		ldrb	r3, [r4, #2]	@ zero_extendqisi2
 167 00ac 13F0010F 		tst	r3, #1
 168 00b0 C5D0     		beq	.L10
 169 00b2 B6E7     		b	.L7
 170              	.L16:
  95:src/semaphore1_app.c ****     }
 171              		.loc 1 95 7 discriminator 2 view .LVU41
 172 00b4 0423     		movs	r3, #4
 173 00b6 A370     		strb	r3, [r4, #2]
  95:src/semaphore1_app.c ****     }
 174              		.loc 1 95 7 discriminator 2 view .LVU42
 175 00b8 0325     		movs	r5, #3
 176 00ba B2E7     		b	.L7
 177              	.L12:
  95:src/semaphore1_app.c ****     }
 178              		.loc 1 95 7 discriminator 5 view .LVU43
 179 00bc A378     		ldrb	r3, [r4, #2]	@ zero_extendqisi2
 180 00be 43F00103 		orr	r3, r3, #1
 181 00c2 A370     		strb	r3, [r4, #2]
 182 00c4 F1E7     		b	.L13
 183              	.L18:
 184 00c6 00BF     		.align	2
 185              	.L17:
 186 00c8 00080048 		.word	1207961600
 187              		.cfi_endproc
 188              	.LFE0:
 190              		.section	.text.task2,"ax",%progbits
 191              		.align	1
 192              		.global	task2
 193              		.syntax unified
 194              		.thumb
 195              		.thumb_func
 196              		.fpu fpv4-sp-d16
 198              	task2:
 199              	.LVL9:
 200              	.LFB2:
 100:src/semaphore1_app.c **** 
 101:src/semaphore1_app.c **** 
 102:src/semaphore1_app.c **** /* == task1 ==
 103:src/semaphore1_app.c ****  * Print out a counter value local to this task, then delay
 104:src/semaphore1_app.c ****  * for a random period of time.  (Delays range from approx.
 105:src/semaphore1_app.c ****  * 0.25 - 4.1 seconds)
 106:src/semaphore1_app.c ****  */
 107:src/semaphore1_app.c **** ESOS_USER_TASK(task1) {
 108:src/semaphore1_app.c ****   static  uint8_t           u8_cnt=0;
 109:src/semaphore1_app.c **** 
 110:src/semaphore1_app.c ****   ESOS_TASK_BEGIN();
 111:src/semaphore1_app.c ****   while (TRUE) {
 112:src/semaphore1_app.c ****     ESOS_TASK_WAIT_ON_AVAILABLE_OUT_COMM();
 113:src/semaphore1_app.c ****     ESOS_TASK_WAIT_ON_SEND_STRING( psz_T1 );
ARM GAS  C:\Users\Travis\AppData\Local\Temp\ccPHtQoW.s 			page 7


 114:src/semaphore1_app.c ****     ESOS_TASK_WAIT_ON_SEND_UINT8_AS_DEC_STRING( u8_cnt );
 115:src/semaphore1_app.c ****     ESOS_TASK_WAIT_ON_SEND_STRING( psz_CRNL );
 116:src/semaphore1_app.c ****     ESOS_TASK_SIGNAL_AVAILABLE_OUT_COMM();
 117:src/semaphore1_app.c ****     ESOS_SIGNAL_SEMAPHORE(sem_T2CanRun, 1);
 118:src/semaphore1_app.c ****     u8_cnt++;
 119:src/semaphore1_app.c ****     ESOS_TASK_WAIT_TICKS( getRandomDelay() );
 120:src/semaphore1_app.c ****   } // endof while(TRUE)
 121:src/semaphore1_app.c ****   ESOS_TASK_END();
 122:src/semaphore1_app.c **** } // end task1()
 123:src/semaphore1_app.c **** 
 124:src/semaphore1_app.c **** /* == task2 ==
 125:src/semaphore1_app.c ****  * Wait for a signal from task1, then
 126:src/semaphore1_app.c ****  * Print out a counter value local to this task
 127:src/semaphore1_app.c ****  */
 128:src/semaphore1_app.c **** ESOS_USER_TASK(task2) {
 201              		.loc 1 128 23 view -0
 202              		.cfi_startproc
 203              		@ args = 0, pretend = 0, frame = 0
 204              		@ frame_needed = 0, uses_anonymous_args = 0
 205              		.loc 1 128 23 is_stmt 0 view .LVU45
 206 0000 38B5     		push	{r3, r4, r5, lr}
 207              	.LCFI1:
 208              		.cfi_def_cfa_offset 16
 209              		.cfi_offset 3, -16
 210              		.cfi_offset 4, -12
 211              		.cfi_offset 5, -8
 212              		.cfi_offset 14, -4
 213 0002 0446     		mov	r4, r0
 129:src/semaphore1_app.c ****   static  uint8_t           u8_cnt=0;
 214              		.loc 1 129 3 is_stmt 1 view .LVU46
 130:src/semaphore1_app.c **** 
 131:src/semaphore1_app.c ****   ESOS_TASK_BEGIN();
 215              		.loc 1 131 3 view .LVU47
 216 0004 8378     		ldrb	r3, [r0, #2]	@ zero_extendqisi2
 217 0006 63F07F03 		orn	r3, r3, #127
 218 000a 8370     		strb	r3, [r0, #2]
 219              		.loc 1 131 3 view .LVU48
 220 000c 0388     		ldrh	r3, [r0]
 221 000e 002B     		cmp	r3, #0
 222 0010 45D0     		beq	.L20
 223 0012 892B     		cmp	r3, #137
 224 0014 00F2B280 		bhi	.L21
 225 0018 852B     		cmp	r3, #133
 226 001a C0F0AF80 		bcc	.L21
 227 001e 853B     		subs	r3, r3, #133
 228 0020 042B     		cmp	r3, #4
 229 0022 00F2AB80 		bhi	.L21
 230 0026 DFE803F0 		tbb	[pc, r3]
 231              	.L23:
 232 002a 3C       		.byte	(.L27-.L23)/2
 233 002b 51       		.byte	(.L26-.L23)/2
 234 002c 6B       		.byte	(.L25-.L23)/2
 235 002d 82       		.byte	(.L24-.L23)/2
 236 002e 9A       		.byte	(.L22-.L23)/2
 237              	.LVL10:
 238 002f 00       		.p2align 1
 239              	.L45:
ARM GAS  C:\Users\Travis\AppData\Local\Temp\ccPHtQoW.s 			page 8


 132:src/semaphore1_app.c ****   while (TRUE) {
 133:src/semaphore1_app.c ****     ESOS_TASK_WAIT_SEMAPHORE(sem_T2CanRun, 5);
 240              		.loc 1 133 5 discriminator 2 view .LVU49
 241 0030 0423     		movs	r3, #4
 242 0032 A370     		strb	r3, [r4, #2]
 243              		.loc 1 133 5 discriminator 2 view .LVU50
 244 0034 0325     		movs	r5, #3
 245 0036 A6E0     		b	.L29
 246              	.L30:
 247              		.loc 1 133 5 discriminator 5 view .LVU51
 248 0038 43F00103 		orr	r3, r3, #1
 249 003c A370     		strb	r3, [r4, #2]
 250 003e 3CE0     		b	.L31
 251              	.L46:
 134:src/semaphore1_app.c ****     ESOS_TASK_WAIT_ON_AVAILABLE_OUT_COMM();
 252              		.loc 1 134 5 discriminator 2 view .LVU52
 253 0040 0423     		movs	r3, #4
 254 0042 A370     		strb	r3, [r4, #2]
 255              		.loc 1 134 5 discriminator 2 view .LVU53
 256 0044 0325     		movs	r5, #3
 257 0046 9EE0     		b	.L29
 258              	.L33:
 259              		.loc 1 134 5 discriminator 5 view .LVU54
 260 0048 43F00103 		orr	r3, r3, #1
 261 004c A370     		strb	r3, [r4, #2]
 262 004e 49E0     		b	.L34
 263              	.L47:
 135:src/semaphore1_app.c ****     ESOS_TASK_WAIT_ON_SEND_STRING( psz_T2 );
 264              		.loc 1 135 5 discriminator 2 view .LVU55
 265 0050 0423     		movs	r3, #4
 266 0052 A370     		strb	r3, [r4, #2]
 267              		.loc 1 135 5 discriminator 2 view .LVU56
 268 0054 0325     		movs	r5, #3
 269 0056 96E0     		b	.L29
 270              	.L36:
 271              		.loc 1 135 5 discriminator 5 view .LVU57
 272 0058 A378     		ldrb	r3, [r4, #2]	@ zero_extendqisi2
 273 005a 43F00103 		orr	r3, r3, #1
 274 005e A370     		strb	r3, [r4, #2]
 275 0060 5CE0     		b	.L37
 276              	.L48:
 136:src/semaphore1_app.c ****     ESOS_TASK_WAIT_ON_SEND_UINT8_AS_HEX_STRING( u8_cnt );
 277              		.loc 1 136 5 discriminator 2 view .LVU58
 278 0062 0423     		movs	r3, #4
 279 0064 A370     		strb	r3, [r4, #2]
 280              		.loc 1 136 5 discriminator 2 view .LVU59
 281 0066 0325     		movs	r5, #3
 282 0068 8DE0     		b	.L29
 283              	.L39:
 284              		.loc 1 136 5 discriminator 5 view .LVU60
 285 006a A378     		ldrb	r3, [r4, #2]	@ zero_extendqisi2
 286 006c 43F00103 		orr	r3, r3, #1
 287 0070 A370     		strb	r3, [r4, #2]
 288 0072 6BE0     		b	.L40
 289              	.L49:
 137:src/semaphore1_app.c ****     ESOS_TASK_WAIT_ON_SEND_STRING( psz_CRNL );
 290              		.loc 1 137 5 discriminator 2 view .LVU61
ARM GAS  C:\Users\Travis\AppData\Local\Temp\ccPHtQoW.s 			page 9


 291 0074 0423     		movs	r3, #4
 292 0076 A370     		strb	r3, [r4, #2]
 293              		.loc 1 137 5 discriminator 2 view .LVU62
 294 0078 0325     		movs	r5, #3
 295 007a 84E0     		b	.L29
 296              	.L42:
 297              		.loc 1 137 5 discriminator 5 view .LVU63
 298 007c A378     		ldrb	r3, [r4, #2]	@ zero_extendqisi2
 299 007e 43F00103 		orr	r3, r3, #1
 300 0082 A370     		strb	r3, [r4, #2]
 301              	.L43:
 302              		.loc 1 137 5 discriminator 7 view .LVU64
 303 0084 A378     		ldrb	r3, [r4, #2]	@ zero_extendqisi2
 304 0086 13F0010F 		tst	r3, #1
 305 008a 7CD1     		bne	.L29
 306              		.loc 1 137 5 discriminator 9 view .LVU65
 307              		.loc 1 137 5 discriminator 9 view .LVU66
 138:src/semaphore1_app.c ****     ESOS_TASK_SIGNAL_AVAILABLE_OUT_COMM();
 308              		.loc 1 138 5 discriminator 9 view .LVU67
 309 008c 3F4A     		ldr	r2, .L50
 310 008e 1368     		ldr	r3, [r2]
 311 0090 23F00403 		bic	r3, r3, #4
 312 0094 1360     		str	r3, [r2]
 139:src/semaphore1_app.c ****     u8_cnt++;
 313              		.loc 1 139 5 discriminator 9 view .LVU68
 314              		.loc 1 139 11 is_stmt 0 discriminator 9 view .LVU69
 315 0096 3E4A     		ldr	r2, .L50+4
 316 0098 1378     		ldrb	r3, [r2]	@ zero_extendqisi2
 317 009a 0133     		adds	r3, r3, #1
 318 009c 1370     		strb	r3, [r2]
 132:src/semaphore1_app.c ****     ESOS_TASK_WAIT_SEMAPHORE(sem_T2CanRun, 5);
 319              		.loc 1 132 9 is_stmt 1 discriminator 9 view .LVU70
 320              	.L20:
 131:src/semaphore1_app.c ****   while (TRUE) {
 321              		.loc 1 131 20 discriminator 1 view .LVU71
 132:src/semaphore1_app.c ****     ESOS_TASK_WAIT_SEMAPHORE(sem_T2CanRun, 5);
 322              		.loc 1 132 3 discriminator 1 view .LVU72
 133:src/semaphore1_app.c ****     ESOS_TASK_WAIT_ON_AVAILABLE_OUT_COMM();
 323              		.loc 1 133 5 discriminator 1 view .LVU73
 133:src/semaphore1_app.c ****     ESOS_TASK_WAIT_ON_AVAILABLE_OUT_COMM();
 324              		.loc 1 133 5 discriminator 1 view .LVU74
 133:src/semaphore1_app.c ****     ESOS_TASK_WAIT_ON_AVAILABLE_OUT_COMM();
 325              		.loc 1 133 5 discriminator 1 view .LVU75
 326 009e 8523     		movs	r3, #133
 327 00a0 2380     		strh	r3, [r4]	@ movhi
 328              	.L27:
 133:src/semaphore1_app.c ****     ESOS_TASK_WAIT_ON_AVAILABLE_OUT_COMM();
 329              		.loc 1 133 5 discriminator 1 view .LVU76
 133:src/semaphore1_app.c ****     ESOS_TASK_WAIT_ON_AVAILABLE_OUT_COMM();
 330              		.loc 1 133 5 discriminator 1 view .LVU77
 331 00a2 A378     		ldrb	r3, [r4, #2]	@ zero_extendqisi2
 332 00a4 13F00405 		ands	r5, r3, #4
 333 00a8 C2D1     		bne	.L45
 133:src/semaphore1_app.c ****     ESOS_TASK_WAIT_ON_AVAILABLE_OUT_COMM();
 334              		.loc 1 133 5 discriminator 3 view .LVU78
 335 00aa 3A4A     		ldr	r2, .L50+8
 336 00ac B2F90020 		ldrsh	r2, [r2]
ARM GAS  C:\Users\Travis\AppData\Local\Temp\ccPHtQoW.s 			page 10


 337 00b0 042A     		cmp	r2, #4
 338 00b2 C1DD     		ble	.L30
 133:src/semaphore1_app.c ****     ESOS_TASK_WAIT_ON_AVAILABLE_OUT_COMM();
 339              		.loc 1 133 5 discriminator 4 view .LVU79
 340 00b4 23F00103 		bic	r3, r3, #1
 341 00b8 A370     		strb	r3, [r4, #2]
 342              	.L31:
 133:src/semaphore1_app.c ****     ESOS_TASK_WAIT_ON_AVAILABLE_OUT_COMM();
 343              		.loc 1 133 5 discriminator 7 view .LVU80
 344 00ba A378     		ldrb	r3, [r4, #2]	@ zero_extendqisi2
 345 00bc 13F0010F 		tst	r3, #1
 346 00c0 61D1     		bne	.L29
 133:src/semaphore1_app.c ****     ESOS_TASK_WAIT_ON_AVAILABLE_OUT_COMM();
 347              		.loc 1 133 5 discriminator 9 view .LVU81
 133:src/semaphore1_app.c ****     ESOS_TASK_WAIT_ON_AVAILABLE_OUT_COMM();
 348              		.loc 1 133 5 discriminator 9 view .LVU82
 349 00c2 053A     		subs	r2, r2, #5
 350 00c4 334B     		ldr	r3, .L50+8
 351 00c6 1A80     		strh	r2, [r3]	@ movhi
 133:src/semaphore1_app.c ****     ESOS_TASK_WAIT_ON_AVAILABLE_OUT_COMM();
 352              		.loc 1 133 5 discriminator 9 view .LVU83
 134:src/semaphore1_app.c ****     ESOS_TASK_WAIT_ON_SEND_STRING( psz_T2 );
 353              		.loc 1 134 5 discriminator 9 view .LVU84
 134:src/semaphore1_app.c ****     ESOS_TASK_WAIT_ON_SEND_STRING( psz_T2 );
 354              		.loc 1 134 5 discriminator 9 view .LVU85
 355 00c8 8623     		movs	r3, #134
 356 00ca 2380     		strh	r3, [r4]	@ movhi
 357              	.L26:
 134:src/semaphore1_app.c ****     ESOS_TASK_WAIT_ON_SEND_STRING( psz_T2 );
 358              		.loc 1 134 5 discriminator 1 view .LVU86
 134:src/semaphore1_app.c ****     ESOS_TASK_WAIT_ON_SEND_STRING( psz_T2 );
 359              		.loc 1 134 5 discriminator 1 view .LVU87
 360 00cc A378     		ldrb	r3, [r4, #2]	@ zero_extendqisi2
 361 00ce 13F00405 		ands	r5, r3, #4
 362 00d2 B5D1     		bne	.L46
 134:src/semaphore1_app.c ****     ESOS_TASK_WAIT_ON_SEND_STRING( psz_T2 );
 363              		.loc 1 134 5 discriminator 3 view .LVU88
 364 00d4 2D4A     		ldr	r2, .L50
 365 00d6 1268     		ldr	r2, [r2]
 366 00d8 12F0040F 		tst	r2, #4
 367 00dc B4D1     		bne	.L33
 134:src/semaphore1_app.c ****     ESOS_TASK_WAIT_ON_SEND_STRING( psz_T2 );
 368              		.loc 1 134 5 discriminator 4 view .LVU89
 369 00de 23F00103 		bic	r3, r3, #1
 370 00e2 A370     		strb	r3, [r4, #2]
 371              	.L34:
 134:src/semaphore1_app.c ****     ESOS_TASK_WAIT_ON_SEND_STRING( psz_T2 );
 372              		.loc 1 134 5 discriminator 7 view .LVU90
 373 00e4 A378     		ldrb	r3, [r4, #2]	@ zero_extendqisi2
 374 00e6 13F0010F 		tst	r3, #1
 375 00ea 4CD1     		bne	.L29
 134:src/semaphore1_app.c ****     ESOS_TASK_WAIT_ON_SEND_STRING( psz_T2 );
 376              		.loc 1 134 5 discriminator 9 view .LVU91
 134:src/semaphore1_app.c ****     ESOS_TASK_WAIT_ON_SEND_STRING( psz_T2 );
 377              		.loc 1 134 5 discriminator 9 view .LVU92
 378 00ec 274A     		ldr	r2, .L50
 379 00ee 1368     		ldr	r3, [r2]
ARM GAS  C:\Users\Travis\AppData\Local\Temp\ccPHtQoW.s 			page 11


 380 00f0 43F00403 		orr	r3, r3, #4
 381 00f4 1360     		str	r3, [r2]
 135:src/semaphore1_app.c ****     ESOS_TASK_WAIT_ON_SEND_UINT8_AS_HEX_STRING( u8_cnt );
 382              		.loc 1 135 5 discriminator 9 view .LVU93
 135:src/semaphore1_app.c ****     ESOS_TASK_WAIT_ON_SEND_UINT8_AS_HEX_STRING( u8_cnt );
 383              		.loc 1 135 5 discriminator 9 view .LVU94
 384 00f6 284B     		ldr	r3, .L50+12
 385 00f8 0022     		movs	r2, #0
 386 00fa 1A80     		strh	r2, [r3]	@ movhi
 135:src/semaphore1_app.c ****     ESOS_TASK_WAIT_ON_SEND_UINT8_AS_HEX_STRING( u8_cnt );
 387              		.loc 1 135 5 discriminator 9 view .LVU95
 135:src/semaphore1_app.c ****     ESOS_TASK_WAIT_ON_SEND_UINT8_AS_HEX_STRING( u8_cnt );
 388              		.loc 1 135 5 discriminator 9 view .LVU96
 135:src/semaphore1_app.c ****     ESOS_TASK_WAIT_ON_SEND_UINT8_AS_HEX_STRING( u8_cnt );
 389              		.loc 1 135 5 discriminator 9 view .LVU97
 135:src/semaphore1_app.c ****     ESOS_TASK_WAIT_ON_SEND_UINT8_AS_HEX_STRING( u8_cnt );
 390              		.loc 1 135 5 discriminator 9 view .LVU98
 391 00fc 8723     		movs	r3, #135
 392 00fe 2380     		strh	r3, [r4]	@ movhi
 393              	.L25:
 135:src/semaphore1_app.c ****     ESOS_TASK_WAIT_ON_SEND_UINT8_AS_HEX_STRING( u8_cnt );
 394              		.loc 1 135 5 discriminator 1 view .LVU99
 135:src/semaphore1_app.c ****     ESOS_TASK_WAIT_ON_SEND_UINT8_AS_HEX_STRING( u8_cnt );
 395              		.loc 1 135 5 discriminator 1 view .LVU100
 396 0100 A578     		ldrb	r5, [r4, #2]	@ zero_extendqisi2
 397 0102 15F00405 		ands	r5, r5, #4
 398 0106 A3D1     		bne	.L47
 135:src/semaphore1_app.c ****     ESOS_TASK_WAIT_ON_SEND_UINT8_AS_HEX_STRING( u8_cnt );
 399              		.loc 1 135 5 discriminator 3 view .LVU101
 400 0108 2449     		ldr	r1, .L50+16
 401 010a 2348     		ldr	r0, .L50+12
 402 010c FFF7FEFF 		bl	__esos_OutString
 403              	.LVL11:
 404 0110 0228     		cmp	r0, #2
 405 0112 A1D9     		bls	.L36
 135:src/semaphore1_app.c ****     ESOS_TASK_WAIT_ON_SEND_UINT8_AS_HEX_STRING( u8_cnt );
 406              		.loc 1 135 5 discriminator 4 view .LVU102
 407 0114 A378     		ldrb	r3, [r4, #2]	@ zero_extendqisi2
 408 0116 23F00103 		bic	r3, r3, #1
 409 011a A370     		strb	r3, [r4, #2]
 410              	.L37:
 135:src/semaphore1_app.c ****     ESOS_TASK_WAIT_ON_SEND_UINT8_AS_HEX_STRING( u8_cnt );
 411              		.loc 1 135 5 discriminator 7 view .LVU103
 412 011c A378     		ldrb	r3, [r4, #2]	@ zero_extendqisi2
 413 011e 13F0010F 		tst	r3, #1
 414 0122 30D1     		bne	.L29
 135:src/semaphore1_app.c ****     ESOS_TASK_WAIT_ON_SEND_UINT8_AS_HEX_STRING( u8_cnt );
 415              		.loc 1 135 5 discriminator 9 view .LVU104
 135:src/semaphore1_app.c ****     ESOS_TASK_WAIT_ON_SEND_UINT8_AS_HEX_STRING( u8_cnt );
 416              		.loc 1 135 5 discriminator 9 view .LVU105
 136:src/semaphore1_app.c ****     ESOS_TASK_WAIT_ON_SEND_STRING( psz_CRNL );
 417              		.loc 1 136 5 discriminator 9 view .LVU106
 136:src/semaphore1_app.c ****     ESOS_TASK_WAIT_ON_SEND_STRING( psz_CRNL );
 418              		.loc 1 136 5 discriminator 9 view .LVU107
 419 0124 1C4B     		ldr	r3, .L50+12
 420 0126 0022     		movs	r2, #0
 421 0128 1A80     		strh	r2, [r3]	@ movhi
ARM GAS  C:\Users\Travis\AppData\Local\Temp\ccPHtQoW.s 			page 12


 136:src/semaphore1_app.c ****     ESOS_TASK_WAIT_ON_SEND_STRING( psz_CRNL );
 422              		.loc 1 136 5 discriminator 9 view .LVU108
 136:src/semaphore1_app.c ****     ESOS_TASK_WAIT_ON_SEND_STRING( psz_CRNL );
 423              		.loc 1 136 5 discriminator 9 view .LVU109
 136:src/semaphore1_app.c ****     ESOS_TASK_WAIT_ON_SEND_STRING( psz_CRNL );
 424              		.loc 1 136 5 discriminator 9 view .LVU110
 136:src/semaphore1_app.c ****     ESOS_TASK_WAIT_ON_SEND_STRING( psz_CRNL );
 425              		.loc 1 136 5 discriminator 9 view .LVU111
 426 012a 8823     		movs	r3, #136
 427 012c 2380     		strh	r3, [r4]	@ movhi
 428              	.L24:
 136:src/semaphore1_app.c ****     ESOS_TASK_WAIT_ON_SEND_STRING( psz_CRNL );
 429              		.loc 1 136 5 discriminator 1 view .LVU112
 136:src/semaphore1_app.c ****     ESOS_TASK_WAIT_ON_SEND_STRING( psz_CRNL );
 430              		.loc 1 136 5 discriminator 1 view .LVU113
 431 012e A578     		ldrb	r5, [r4, #2]	@ zero_extendqisi2
 432 0130 15F00405 		ands	r5, r5, #4
 433 0134 95D1     		bne	.L48
 136:src/semaphore1_app.c ****     ESOS_TASK_WAIT_ON_SEND_STRING( psz_CRNL );
 434              		.loc 1 136 5 discriminator 3 view .LVU114
 435 0136 164B     		ldr	r3, .L50+4
 436 0138 1978     		ldrb	r1, [r3]	@ zero_extendqisi2
 437 013a 1748     		ldr	r0, .L50+12
 438 013c FFF7FEFF 		bl	__esos_OutUint8AsHexString
 439              	.LVL12:
 440 0140 0228     		cmp	r0, #2
 441 0142 92D9     		bls	.L39
 136:src/semaphore1_app.c ****     ESOS_TASK_WAIT_ON_SEND_STRING( psz_CRNL );
 442              		.loc 1 136 5 discriminator 4 view .LVU115
 443 0144 A378     		ldrb	r3, [r4, #2]	@ zero_extendqisi2
 444 0146 23F00103 		bic	r3, r3, #1
 445 014a A370     		strb	r3, [r4, #2]
 446              	.L40:
 136:src/semaphore1_app.c ****     ESOS_TASK_WAIT_ON_SEND_STRING( psz_CRNL );
 447              		.loc 1 136 5 discriminator 7 view .LVU116
 448 014c A378     		ldrb	r3, [r4, #2]	@ zero_extendqisi2
 449 014e 13F0010F 		tst	r3, #1
 450 0152 18D1     		bne	.L29
 136:src/semaphore1_app.c ****     ESOS_TASK_WAIT_ON_SEND_STRING( psz_CRNL );
 451              		.loc 1 136 5 discriminator 9 view .LVU117
 136:src/semaphore1_app.c ****     ESOS_TASK_WAIT_ON_SEND_STRING( psz_CRNL );
 452              		.loc 1 136 5 discriminator 9 view .LVU118
 137:src/semaphore1_app.c ****     ESOS_TASK_SIGNAL_AVAILABLE_OUT_COMM();
 453              		.loc 1 137 5 discriminator 9 view .LVU119
 137:src/semaphore1_app.c ****     ESOS_TASK_SIGNAL_AVAILABLE_OUT_COMM();
 454              		.loc 1 137 5 discriminator 9 view .LVU120
 455 0154 104B     		ldr	r3, .L50+12
 456 0156 0022     		movs	r2, #0
 457 0158 1A80     		strh	r2, [r3]	@ movhi
 137:src/semaphore1_app.c ****     ESOS_TASK_SIGNAL_AVAILABLE_OUT_COMM();
 458              		.loc 1 137 5 discriminator 9 view .LVU121
 137:src/semaphore1_app.c ****     ESOS_TASK_SIGNAL_AVAILABLE_OUT_COMM();
 459              		.loc 1 137 5 discriminator 9 view .LVU122
 137:src/semaphore1_app.c ****     ESOS_TASK_SIGNAL_AVAILABLE_OUT_COMM();
 460              		.loc 1 137 5 discriminator 9 view .LVU123
 137:src/semaphore1_app.c ****     ESOS_TASK_SIGNAL_AVAILABLE_OUT_COMM();
 461              		.loc 1 137 5 discriminator 9 view .LVU124
ARM GAS  C:\Users\Travis\AppData\Local\Temp\ccPHtQoW.s 			page 13


 462 015a 8923     		movs	r3, #137
 463 015c 2380     		strh	r3, [r4]	@ movhi
 464              	.L22:
 137:src/semaphore1_app.c ****     ESOS_TASK_SIGNAL_AVAILABLE_OUT_COMM();
 465              		.loc 1 137 5 discriminator 1 view .LVU125
 137:src/semaphore1_app.c ****     ESOS_TASK_SIGNAL_AVAILABLE_OUT_COMM();
 466              		.loc 1 137 5 discriminator 1 view .LVU126
 467 015e A578     		ldrb	r5, [r4, #2]	@ zero_extendqisi2
 468 0160 15F00405 		ands	r5, r5, #4
 469 0164 86D1     		bne	.L49
 137:src/semaphore1_app.c ****     ESOS_TASK_SIGNAL_AVAILABLE_OUT_COMM();
 470              		.loc 1 137 5 discriminator 3 view .LVU127
 471 0166 0E49     		ldr	r1, .L50+20
 472 0168 0B48     		ldr	r0, .L50+12
 473 016a FFF7FEFF 		bl	__esos_OutString
 474              	.LVL13:
 475 016e 0228     		cmp	r0, #2
 476 0170 84D9     		bls	.L42
 137:src/semaphore1_app.c ****     ESOS_TASK_SIGNAL_AVAILABLE_OUT_COMM();
 477              		.loc 1 137 5 discriminator 4 view .LVU128
 478 0172 A378     		ldrb	r3, [r4, #2]	@ zero_extendqisi2
 479 0174 23F00103 		bic	r3, r3, #1
 480 0178 A370     		strb	r3, [r4, #2]
 481 017a 83E7     		b	.L43
 482              	.LVL14:
 483              	.L21:
 140:src/semaphore1_app.c ****   } // endof while(TRUE)
 141:src/semaphore1_app.c ****   ESOS_TASK_END();
 484              		.loc 1 141 3 view .LVU129
 485              		.loc 1 141 3 view .LVU130
 486 017c 0823     		movs	r3, #8
 487 017e A370     		strb	r3, [r4, #2]
 488              		.loc 1 141 3 view .LVU131
 489 0180 0023     		movs	r3, #0
 490 0182 2380     		strh	r3, [r4]	@ movhi
 491              		.loc 1 141 3 view .LVU132
 492              		.loc 1 141 3 view .LVU133
 493              		.loc 1 141 3 view .LVU134
 494 0184 0325     		movs	r5, #3
 495              	.LVL15:
 496              	.L29:
 497              		.loc 1 141 18 discriminator 1 view .LVU135
 142:src/semaphore1_app.c **** } // end task1()
 498              		.loc 1 142 1 is_stmt 0 discriminator 1 view .LVU136
 499 0186 2846     		mov	r0, r5
 500 0188 38BD     		pop	{r3, r4, r5, pc}
 501              	.LVL16:
 502              	.L51:
 503              		.loc 1 142 1 discriminator 1 view .LVU137
 504 018a 00BF     		.align	2
 505              	.L50:
 506 018c 00000000 		.word	__esos_u32SystemFlags
 507 0190 00000000 		.word	.LANCHOR1
 508 0194 00000000 		.word	sem_T2CanRun
 509 0198 00000000 		.word	__stChildTaskTx
 510 019c 00000000 		.word	.LANCHOR0
 511 01a0 00000000 		.word	.LANCHOR2
ARM GAS  C:\Users\Travis\AppData\Local\Temp\ccPHtQoW.s 			page 14


 512              		.cfi_endproc
 513              	.LFE2:
 515              		.section	.text.task1,"ax",%progbits
 516              		.align	1
 517              		.global	task1
 518              		.syntax unified
 519              		.thumb
 520              		.thumb_func
 521              		.fpu fpv4-sp-d16
 523              	task1:
 524              	.LVL17:
 525              	.LFB1:
 107:src/semaphore1_app.c ****   static  uint8_t           u8_cnt=0;
 526              		.loc 1 107 23 is_stmt 1 view -0
 527              		.cfi_startproc
 528              		@ args = 0, pretend = 0, frame = 0
 529              		@ frame_needed = 0, uses_anonymous_args = 0
 107:src/semaphore1_app.c ****   static  uint8_t           u8_cnt=0;
 530              		.loc 1 107 23 is_stmt 0 view .LVU139
 531 0000 38B5     		push	{r3, r4, r5, lr}
 532              	.LCFI2:
 533              		.cfi_def_cfa_offset 16
 534              		.cfi_offset 3, -16
 535              		.cfi_offset 4, -12
 536              		.cfi_offset 5, -8
 537              		.cfi_offset 14, -4
 538 0002 0446     		mov	r4, r0
 108:src/semaphore1_app.c **** 
 539              		.loc 1 108 3 is_stmt 1 view .LVU140
 110:src/semaphore1_app.c ****   while (TRUE) {
 540              		.loc 1 110 3 view .LVU141
 541 0004 8378     		ldrb	r3, [r0, #2]	@ zero_extendqisi2
 542 0006 63F07F03 		orn	r3, r3, #127
 543 000a 8370     		strb	r3, [r0, #2]
 110:src/semaphore1_app.c ****   while (TRUE) {
 544              		.loc 1 110 3 view .LVU142
 545 000c 0388     		ldrh	r3, [r0]
 546 000e 002B     		cmp	r3, #0
 547 0010 3FD0     		beq	.L53
 548 0012 772B     		cmp	r3, #119
 549 0014 00F2C680 		bhi	.L54
 550 0018 702B     		cmp	r3, #112
 551 001a C0F0C380 		bcc	.L54
 552 001e 703B     		subs	r3, r3, #112
 553 0020 072B     		cmp	r3, #7
 554 0022 00F2BF80 		bhi	.L54
 555 0026 DFE803F0 		tbb	[pc, r3]
 556              	.L56:
 557 002a 36       		.byte	(.L60-.L56)/2
 558 002b 50       		.byte	(.L59-.L56)/2
 559 002c 67       		.byte	(.L58-.L56)/2
 560 002d 7F       		.byte	(.L57-.L56)/2
 561 002e BD       		.byte	(.L54-.L56)/2
 562 002f BD       		.byte	(.L54-.L56)/2
 563 0030 BD       		.byte	(.L54-.L56)/2
 564 0031 AC       		.byte	(.L55-.L56)/2
 565              	.LVL18:
ARM GAS  C:\Users\Travis\AppData\Local\Temp\ccPHtQoW.s 			page 15


 566              		.p2align 1
 567              	.L78:
 112:src/semaphore1_app.c ****     ESOS_TASK_WAIT_ON_SEND_STRING( psz_T1 );
 568              		.loc 1 112 5 discriminator 2 view .LVU143
 569 0032 0423     		movs	r3, #4
 570 0034 A370     		strb	r3, [r4, #2]
 112:src/semaphore1_app.c ****     ESOS_TASK_WAIT_ON_SEND_STRING( psz_T1 );
 571              		.loc 1 112 5 discriminator 2 view .LVU144
 572 0036 0325     		movs	r5, #3
 573 0038 B9E0     		b	.L62
 574              	.L63:
 112:src/semaphore1_app.c ****     ESOS_TASK_WAIT_ON_SEND_STRING( psz_T1 );
 575              		.loc 1 112 5 discriminator 5 view .LVU145
 576 003a 43F00103 		orr	r3, r3, #1
 577 003e A370     		strb	r3, [r4, #2]
 578 0040 35E0     		b	.L64
 579              	.L79:
 113:src/semaphore1_app.c ****     ESOS_TASK_WAIT_ON_SEND_UINT8_AS_DEC_STRING( u8_cnt );
 580              		.loc 1 113 5 discriminator 2 view .LVU146
 581 0042 0423     		movs	r3, #4
 582 0044 A370     		strb	r3, [r4, #2]
 113:src/semaphore1_app.c ****     ESOS_TASK_WAIT_ON_SEND_UINT8_AS_DEC_STRING( u8_cnt );
 583              		.loc 1 113 5 discriminator 2 view .LVU147
 584 0046 0325     		movs	r5, #3
 585 0048 B1E0     		b	.L62
 586              	.L66:
 113:src/semaphore1_app.c ****     ESOS_TASK_WAIT_ON_SEND_UINT8_AS_DEC_STRING( u8_cnt );
 587              		.loc 1 113 5 discriminator 5 view .LVU148
 588 004a A378     		ldrb	r3, [r4, #2]	@ zero_extendqisi2
 589 004c 43F00103 		orr	r3, r3, #1
 590 0050 A370     		strb	r3, [r4, #2]
 591 0052 48E0     		b	.L67
 592              	.L80:
 114:src/semaphore1_app.c ****     ESOS_TASK_WAIT_ON_SEND_STRING( psz_CRNL );
 593              		.loc 1 114 5 discriminator 2 view .LVU149
 594 0054 0423     		movs	r3, #4
 595 0056 A370     		strb	r3, [r4, #2]
 114:src/semaphore1_app.c ****     ESOS_TASK_WAIT_ON_SEND_STRING( psz_CRNL );
 596              		.loc 1 114 5 discriminator 2 view .LVU150
 597 0058 0325     		movs	r5, #3
 598 005a A8E0     		b	.L62
 599              	.L69:
 114:src/semaphore1_app.c ****     ESOS_TASK_WAIT_ON_SEND_STRING( psz_CRNL );
 600              		.loc 1 114 5 discriminator 5 view .LVU151
 601 005c A378     		ldrb	r3, [r4, #2]	@ zero_extendqisi2
 602 005e 43F00103 		orr	r3, r3, #1
 603 0062 A370     		strb	r3, [r4, #2]
 604 0064 57E0     		b	.L70
 605              	.L81:
 115:src/semaphore1_app.c ****     ESOS_TASK_SIGNAL_AVAILABLE_OUT_COMM();
 606              		.loc 1 115 5 discriminator 2 view .LVU152
 607 0066 0423     		movs	r3, #4
 608 0068 A370     		strb	r3, [r4, #2]
 115:src/semaphore1_app.c ****     ESOS_TASK_SIGNAL_AVAILABLE_OUT_COMM();
 609              		.loc 1 115 5 discriminator 2 view .LVU153
 610 006a 0325     		movs	r5, #3
 611 006c 9FE0     		b	.L62
ARM GAS  C:\Users\Travis\AppData\Local\Temp\ccPHtQoW.s 			page 16


 612              	.L72:
 115:src/semaphore1_app.c ****     ESOS_TASK_SIGNAL_AVAILABLE_OUT_COMM();
 613              		.loc 1 115 5 discriminator 5 view .LVU154
 614 006e A378     		ldrb	r3, [r4, #2]	@ zero_extendqisi2
 615 0070 43F00103 		orr	r3, r3, #1
 616 0074 A370     		strb	r3, [r4, #2]
 617 0076 65E0     		b	.L73
 618              	.L82:
 119:src/semaphore1_app.c ****   } // endof while(TRUE)
 619              		.loc 1 119 5 discriminator 2 view .LVU155
 620 0078 0423     		movs	r3, #4
 621 007a A370     		strb	r3, [r4, #2]
 119:src/semaphore1_app.c ****   } // endof while(TRUE)
 622              		.loc 1 119 5 discriminator 2 view .LVU156
 623 007c 0325     		movs	r5, #3
 624 007e 96E0     		b	.L62
 625              	.L75:
 119:src/semaphore1_app.c ****   } // endof while(TRUE)
 626              		.loc 1 119 5 discriminator 5 view .LVU157
 627 0080 A378     		ldrb	r3, [r4, #2]	@ zero_extendqisi2
 628 0082 43F00103 		orr	r3, r3, #1
 629 0086 A370     		strb	r3, [r4, #2]
 630              	.L76:
 119:src/semaphore1_app.c ****   } // endof while(TRUE)
 631              		.loc 1 119 5 discriminator 7 view .LVU158
 632 0088 A378     		ldrb	r3, [r4, #2]	@ zero_extendqisi2
 633 008a 13F0010F 		tst	r3, #1
 634 008e 40F08E80 		bne	.L62
 635              	.L53:
 110:src/semaphore1_app.c ****   while (TRUE) {
 636              		.loc 1 110 20 discriminator 1 view .LVU159
 111:src/semaphore1_app.c ****     ESOS_TASK_WAIT_ON_AVAILABLE_OUT_COMM();
 637              		.loc 1 111 3 discriminator 1 view .LVU160
 112:src/semaphore1_app.c ****     ESOS_TASK_WAIT_ON_SEND_STRING( psz_T1 );
 638              		.loc 1 112 5 discriminator 1 view .LVU161
 112:src/semaphore1_app.c ****     ESOS_TASK_WAIT_ON_SEND_STRING( psz_T1 );
 639              		.loc 1 112 5 discriminator 1 view .LVU162
 640 0092 7023     		movs	r3, #112
 641 0094 2380     		strh	r3, [r4]	@ movhi
 642              	.L60:
 112:src/semaphore1_app.c ****     ESOS_TASK_WAIT_ON_SEND_STRING( psz_T1 );
 643              		.loc 1 112 5 discriminator 1 view .LVU163
 112:src/semaphore1_app.c ****     ESOS_TASK_WAIT_ON_SEND_STRING( psz_T1 );
 644              		.loc 1 112 5 discriminator 1 view .LVU164
 645 0096 A378     		ldrb	r3, [r4, #2]	@ zero_extendqisi2
 646 0098 13F00405 		ands	r5, r3, #4
 647 009c C9D1     		bne	.L78
 112:src/semaphore1_app.c ****     ESOS_TASK_WAIT_ON_SEND_STRING( psz_T1 );
 648              		.loc 1 112 5 discriminator 3 view .LVU165
 649 009e 454A     		ldr	r2, .L83
 650 00a0 1268     		ldr	r2, [r2]
 651 00a2 12F0040F 		tst	r2, #4
 652 00a6 C8D1     		bne	.L63
 112:src/semaphore1_app.c ****     ESOS_TASK_WAIT_ON_SEND_STRING( psz_T1 );
 653              		.loc 1 112 5 discriminator 4 view .LVU166
 654 00a8 23F00103 		bic	r3, r3, #1
 655 00ac A370     		strb	r3, [r4, #2]
ARM GAS  C:\Users\Travis\AppData\Local\Temp\ccPHtQoW.s 			page 17


 656              	.L64:
 112:src/semaphore1_app.c ****     ESOS_TASK_WAIT_ON_SEND_STRING( psz_T1 );
 657              		.loc 1 112 5 discriminator 7 view .LVU167
 658 00ae A378     		ldrb	r3, [r4, #2]	@ zero_extendqisi2
 659 00b0 13F0010F 		tst	r3, #1
 660 00b4 7BD1     		bne	.L62
 112:src/semaphore1_app.c ****     ESOS_TASK_WAIT_ON_SEND_STRING( psz_T1 );
 661              		.loc 1 112 5 discriminator 9 view .LVU168
 112:src/semaphore1_app.c ****     ESOS_TASK_WAIT_ON_SEND_STRING( psz_T1 );
 662              		.loc 1 112 5 discriminator 9 view .LVU169
 663 00b6 3F4A     		ldr	r2, .L83
 664 00b8 1368     		ldr	r3, [r2]
 665 00ba 43F00403 		orr	r3, r3, #4
 666 00be 1360     		str	r3, [r2]
 113:src/semaphore1_app.c ****     ESOS_TASK_WAIT_ON_SEND_UINT8_AS_DEC_STRING( u8_cnt );
 667              		.loc 1 113 5 discriminator 9 view .LVU170
 113:src/semaphore1_app.c ****     ESOS_TASK_WAIT_ON_SEND_UINT8_AS_DEC_STRING( u8_cnt );
 668              		.loc 1 113 5 discriminator 9 view .LVU171
 669 00c0 3D4B     		ldr	r3, .L83+4
 670 00c2 0022     		movs	r2, #0
 671 00c4 1A80     		strh	r2, [r3]	@ movhi
 113:src/semaphore1_app.c ****     ESOS_TASK_WAIT_ON_SEND_UINT8_AS_DEC_STRING( u8_cnt );
 672              		.loc 1 113 5 discriminator 9 view .LVU172
 113:src/semaphore1_app.c ****     ESOS_TASK_WAIT_ON_SEND_UINT8_AS_DEC_STRING( u8_cnt );
 673              		.loc 1 113 5 discriminator 9 view .LVU173
 113:src/semaphore1_app.c ****     ESOS_TASK_WAIT_ON_SEND_UINT8_AS_DEC_STRING( u8_cnt );
 674              		.loc 1 113 5 discriminator 9 view .LVU174
 113:src/semaphore1_app.c ****     ESOS_TASK_WAIT_ON_SEND_UINT8_AS_DEC_STRING( u8_cnt );
 675              		.loc 1 113 5 discriminator 9 view .LVU175
 676 00c6 7123     		movs	r3, #113
 677 00c8 2380     		strh	r3, [r4]	@ movhi
 678              	.L59:
 113:src/semaphore1_app.c ****     ESOS_TASK_WAIT_ON_SEND_UINT8_AS_DEC_STRING( u8_cnt );
 679              		.loc 1 113 5 discriminator 1 view .LVU176
 113:src/semaphore1_app.c ****     ESOS_TASK_WAIT_ON_SEND_UINT8_AS_DEC_STRING( u8_cnt );
 680              		.loc 1 113 5 discriminator 1 view .LVU177
 681 00ca A578     		ldrb	r5, [r4, #2]	@ zero_extendqisi2
 682 00cc 15F00405 		ands	r5, r5, #4
 683 00d0 B7D1     		bne	.L79
 113:src/semaphore1_app.c ****     ESOS_TASK_WAIT_ON_SEND_UINT8_AS_DEC_STRING( u8_cnt );
 684              		.loc 1 113 5 discriminator 3 view .LVU178
 685 00d2 3A49     		ldr	r1, .L83+8
 686 00d4 3848     		ldr	r0, .L83+4
 687 00d6 FFF7FEFF 		bl	__esos_OutString
 688              	.LVL19:
 689 00da 0228     		cmp	r0, #2
 690 00dc B5D9     		bls	.L66
 113:src/semaphore1_app.c ****     ESOS_TASK_WAIT_ON_SEND_UINT8_AS_DEC_STRING( u8_cnt );
 691              		.loc 1 113 5 discriminator 4 view .LVU179
 692 00de A378     		ldrb	r3, [r4, #2]	@ zero_extendqisi2
 693 00e0 23F00103 		bic	r3, r3, #1
 694 00e4 A370     		strb	r3, [r4, #2]
 695              	.L67:
 113:src/semaphore1_app.c ****     ESOS_TASK_WAIT_ON_SEND_UINT8_AS_DEC_STRING( u8_cnt );
 696              		.loc 1 113 5 discriminator 7 view .LVU180
 697 00e6 A378     		ldrb	r3, [r4, #2]	@ zero_extendqisi2
 698 00e8 13F0010F 		tst	r3, #1
ARM GAS  C:\Users\Travis\AppData\Local\Temp\ccPHtQoW.s 			page 18


 699 00ec 5FD1     		bne	.L62
 113:src/semaphore1_app.c ****     ESOS_TASK_WAIT_ON_SEND_UINT8_AS_DEC_STRING( u8_cnt );
 700              		.loc 1 113 5 discriminator 9 view .LVU181
 113:src/semaphore1_app.c ****     ESOS_TASK_WAIT_ON_SEND_UINT8_AS_DEC_STRING( u8_cnt );
 701              		.loc 1 113 5 discriminator 9 view .LVU182
 114:src/semaphore1_app.c ****     ESOS_TASK_WAIT_ON_SEND_STRING( psz_CRNL );
 702              		.loc 1 114 5 discriminator 9 view .LVU183
 114:src/semaphore1_app.c ****     ESOS_TASK_WAIT_ON_SEND_STRING( psz_CRNL );
 703              		.loc 1 114 5 discriminator 9 view .LVU184
 704 00ee 324B     		ldr	r3, .L83+4
 705 00f0 0022     		movs	r2, #0
 706 00f2 1A80     		strh	r2, [r3]	@ movhi
 114:src/semaphore1_app.c ****     ESOS_TASK_WAIT_ON_SEND_STRING( psz_CRNL );
 707              		.loc 1 114 5 discriminator 9 view .LVU185
 114:src/semaphore1_app.c ****     ESOS_TASK_WAIT_ON_SEND_STRING( psz_CRNL );
 708              		.loc 1 114 5 discriminator 9 view .LVU186
 114:src/semaphore1_app.c ****     ESOS_TASK_WAIT_ON_SEND_STRING( psz_CRNL );
 709              		.loc 1 114 5 discriminator 9 view .LVU187
 114:src/semaphore1_app.c ****     ESOS_TASK_WAIT_ON_SEND_STRING( psz_CRNL );
 710              		.loc 1 114 5 discriminator 9 view .LVU188
 711 00f4 7223     		movs	r3, #114
 712 00f6 2380     		strh	r3, [r4]	@ movhi
 713              	.L58:
 114:src/semaphore1_app.c ****     ESOS_TASK_WAIT_ON_SEND_STRING( psz_CRNL );
 714              		.loc 1 114 5 discriminator 1 view .LVU189
 114:src/semaphore1_app.c ****     ESOS_TASK_WAIT_ON_SEND_STRING( psz_CRNL );
 715              		.loc 1 114 5 discriminator 1 view .LVU190
 716 00f8 A578     		ldrb	r5, [r4, #2]	@ zero_extendqisi2
 717 00fa 15F00405 		ands	r5, r5, #4
 718 00fe A9D1     		bne	.L80
 114:src/semaphore1_app.c ****     ESOS_TASK_WAIT_ON_SEND_STRING( psz_CRNL );
 719              		.loc 1 114 5 discriminator 3 view .LVU191
 720 0100 2F4B     		ldr	r3, .L83+12
 721 0102 1978     		ldrb	r1, [r3]	@ zero_extendqisi2
 722 0104 2C48     		ldr	r0, .L83+4
 723 0106 FFF7FEFF 		bl	__esos_OutUint8AsDecString
 724              	.LVL20:
 725 010a 0228     		cmp	r0, #2
 726 010c A6D9     		bls	.L69
 114:src/semaphore1_app.c ****     ESOS_TASK_WAIT_ON_SEND_STRING( psz_CRNL );
 727              		.loc 1 114 5 discriminator 4 view .LVU192
 728 010e A378     		ldrb	r3, [r4, #2]	@ zero_extendqisi2
 729 0110 23F00103 		bic	r3, r3, #1
 730 0114 A370     		strb	r3, [r4, #2]
 731              	.L70:
 114:src/semaphore1_app.c ****     ESOS_TASK_WAIT_ON_SEND_STRING( psz_CRNL );
 732              		.loc 1 114 5 discriminator 7 view .LVU193
 733 0116 A378     		ldrb	r3, [r4, #2]	@ zero_extendqisi2
 734 0118 13F0010F 		tst	r3, #1
 735 011c 47D1     		bne	.L62
 114:src/semaphore1_app.c ****     ESOS_TASK_WAIT_ON_SEND_STRING( psz_CRNL );
 736              		.loc 1 114 5 discriminator 9 view .LVU194
 114:src/semaphore1_app.c ****     ESOS_TASK_WAIT_ON_SEND_STRING( psz_CRNL );
 737              		.loc 1 114 5 discriminator 9 view .LVU195
 115:src/semaphore1_app.c ****     ESOS_TASK_SIGNAL_AVAILABLE_OUT_COMM();
 738              		.loc 1 115 5 discriminator 9 view .LVU196
 115:src/semaphore1_app.c ****     ESOS_TASK_SIGNAL_AVAILABLE_OUT_COMM();
ARM GAS  C:\Users\Travis\AppData\Local\Temp\ccPHtQoW.s 			page 19


 739              		.loc 1 115 5 discriminator 9 view .LVU197
 740 011e 264B     		ldr	r3, .L83+4
 741 0120 0022     		movs	r2, #0
 742 0122 1A80     		strh	r2, [r3]	@ movhi
 115:src/semaphore1_app.c ****     ESOS_TASK_SIGNAL_AVAILABLE_OUT_COMM();
 743              		.loc 1 115 5 discriminator 9 view .LVU198
 115:src/semaphore1_app.c ****     ESOS_TASK_SIGNAL_AVAILABLE_OUT_COMM();
 744              		.loc 1 115 5 discriminator 9 view .LVU199
 115:src/semaphore1_app.c ****     ESOS_TASK_SIGNAL_AVAILABLE_OUT_COMM();
 745              		.loc 1 115 5 discriminator 9 view .LVU200
 115:src/semaphore1_app.c ****     ESOS_TASK_SIGNAL_AVAILABLE_OUT_COMM();
 746              		.loc 1 115 5 discriminator 9 view .LVU201
 747 0124 7323     		movs	r3, #115
 748 0126 2380     		strh	r3, [r4]	@ movhi
 749              	.L57:
 115:src/semaphore1_app.c ****     ESOS_TASK_SIGNAL_AVAILABLE_OUT_COMM();
 750              		.loc 1 115 5 discriminator 1 view .LVU202
 115:src/semaphore1_app.c ****     ESOS_TASK_SIGNAL_AVAILABLE_OUT_COMM();
 751              		.loc 1 115 5 discriminator 1 view .LVU203
 752 0128 A578     		ldrb	r5, [r4, #2]	@ zero_extendqisi2
 753 012a 15F00405 		ands	r5, r5, #4
 754 012e 9AD1     		bne	.L81
 115:src/semaphore1_app.c ****     ESOS_TASK_SIGNAL_AVAILABLE_OUT_COMM();
 755              		.loc 1 115 5 discriminator 3 view .LVU204
 756 0130 2449     		ldr	r1, .L83+16
 757 0132 2148     		ldr	r0, .L83+4
 758 0134 FFF7FEFF 		bl	__esos_OutString
 759              	.LVL21:
 760 0138 0228     		cmp	r0, #2
 761 013a 98D9     		bls	.L72
 115:src/semaphore1_app.c ****     ESOS_TASK_SIGNAL_AVAILABLE_OUT_COMM();
 762              		.loc 1 115 5 discriminator 4 view .LVU205
 763 013c A378     		ldrb	r3, [r4, #2]	@ zero_extendqisi2
 764 013e 23F00103 		bic	r3, r3, #1
 765 0142 A370     		strb	r3, [r4, #2]
 766              	.L73:
 115:src/semaphore1_app.c ****     ESOS_TASK_SIGNAL_AVAILABLE_OUT_COMM();
 767              		.loc 1 115 5 discriminator 7 view .LVU206
 768 0144 A378     		ldrb	r3, [r4, #2]	@ zero_extendqisi2
 769 0146 13F0010F 		tst	r3, #1
 770 014a 30D1     		bne	.L62
 115:src/semaphore1_app.c ****     ESOS_TASK_SIGNAL_AVAILABLE_OUT_COMM();
 771              		.loc 1 115 5 discriminator 9 view .LVU207
 115:src/semaphore1_app.c ****     ESOS_TASK_SIGNAL_AVAILABLE_OUT_COMM();
 772              		.loc 1 115 5 discriminator 9 view .LVU208
 116:src/semaphore1_app.c ****     ESOS_SIGNAL_SEMAPHORE(sem_T2CanRun, 1);
 773              		.loc 1 116 5 discriminator 9 view .LVU209
 774 014c 194A     		ldr	r2, .L83
 775 014e 1368     		ldr	r3, [r2]
 776 0150 23F00403 		bic	r3, r3, #4
 777 0154 1360     		str	r3, [r2]
 117:src/semaphore1_app.c ****     u8_cnt++;
 778              		.loc 1 117 5 discriminator 9 view .LVU210
 779 0156 1C4A     		ldr	r2, .L83+20
 780 0158 1388     		ldrh	r3, [r2]
 781 015a 0133     		adds	r3, r3, #1
 782 015c 1380     		strh	r3, [r2]	@ movhi
ARM GAS  C:\Users\Travis\AppData\Local\Temp\ccPHtQoW.s 			page 20


 118:src/semaphore1_app.c ****     ESOS_TASK_WAIT_TICKS( getRandomDelay() );
 783              		.loc 1 118 5 discriminator 9 view .LVU211
 118:src/semaphore1_app.c ****     ESOS_TASK_WAIT_TICKS( getRandomDelay() );
 784              		.loc 1 118 11 is_stmt 0 discriminator 9 view .LVU212
 785 015e 184A     		ldr	r2, .L83+12
 786 0160 1378     		ldrb	r3, [r2]	@ zero_extendqisi2
 787 0162 0133     		adds	r3, r3, #1
 788 0164 1370     		strb	r3, [r2]
 119:src/semaphore1_app.c ****   } // endof while(TRUE)
 789              		.loc 1 119 5 is_stmt 1 discriminator 9 view .LVU213
 119:src/semaphore1_app.c ****   } // endof while(TRUE)
 790              		.loc 1 119 5 discriminator 9 view .LVU214
 791 0166 FFF7FEFF 		bl	__esos_hw_GetSystemTickCount
 792              	.LVL22:
 793 016a A060     		str	r0, [r4, #8]
 119:src/semaphore1_app.c ****   } // endof while(TRUE)
 794              		.loc 1 119 5 discriminator 9 view .LVU215
 795              	.LBB4:
 796              	.LBI4:
 143:src/semaphore1_app.c **** 
 144:src/semaphore1_app.c **** 
 145:src/semaphore1_app.c **** /************************************************************************
 146:src/semaphore1_app.c ****  * User supplied functions
 147:src/semaphore1_app.c ****  ************************************************************************
 148:src/semaphore1_app.c ****  */
 149:src/semaphore1_app.c ****  
 150:src/semaphore1_app.c ****  /*
 151:src/semaphore1_app.c ****  * return an uint32_t that can be used for a reasonable delay
 152:src/semaphore1_app.c ****  * should not be too short (~255 ticks) and not too long (~4096 ticks)
 153:src/semaphore1_app.c ****  */
 154:src/semaphore1_app.c **** inline uint32_t getRandomDelay() {
 797              		.loc 1 154 17 discriminator 9 view .LVU216
 798              	.LBB5:
 155:src/semaphore1_app.c ****   return ((esos_GetRandomUint32() & 0x0FFF)|0x100);
 799              		.loc 1 155 3 discriminator 9 view .LVU217
 800              		.loc 1 155 12 is_stmt 0 discriminator 9 view .LVU218
 801 016c FFF7FEFF 		bl	esos_GetRandomUint32
 802              	.LVL23:
 803              		.loc 1 155 44 discriminator 9 view .LVU219
 804 0170 20F48070 		bic	r0, r0, #256
 805 0174 0005     		lsls	r0, r0, #20
 806 0176 000D     		lsrs	r0, r0, #20
 807 0178 40F48070 		orr	r0, r0, #256
 808              	.LBE5:
 809              	.LBE4:
 119:src/semaphore1_app.c ****   } // endof while(TRUE)
 810              		.loc 1 119 5 discriminator 9 view .LVU220
 811 017c E060     		str	r0, [r4, #12]
 119:src/semaphore1_app.c ****   } // endof while(TRUE)
 812              		.loc 1 119 5 is_stmt 1 discriminator 9 view .LVU221
 119:src/semaphore1_app.c ****   } // endof while(TRUE)
 813              		.loc 1 119 5 discriminator 9 view .LVU222
 814 017e 7723     		movs	r3, #119
 815 0180 2380     		strh	r3, [r4]	@ movhi
 816              	.L55:
 119:src/semaphore1_app.c ****   } // endof while(TRUE)
 817              		.loc 1 119 5 discriminator 1 view .LVU223
ARM GAS  C:\Users\Travis\AppData\Local\Temp\ccPHtQoW.s 			page 21


 119:src/semaphore1_app.c ****   } // endof while(TRUE)
 818              		.loc 1 119 5 discriminator 1 view .LVU224
 819 0182 A578     		ldrb	r5, [r4, #2]	@ zero_extendqisi2
 820 0184 15F00405 		ands	r5, r5, #4
 821 0188 7FF476AF 		bne	.L82
 119:src/semaphore1_app.c ****   } // endof while(TRUE)
 822              		.loc 1 119 5 discriminator 3 view .LVU225
 823 018c E168     		ldr	r1, [r4, #12]
 824 018e A068     		ldr	r0, [r4, #8]
 825 0190 FFF7FEFF 		bl	__esos_hasTickDurationPassed
 826              	.LVL24:
 827 0194 0028     		cmp	r0, #0
 828 0196 3FF473AF 		beq	.L75
 119:src/semaphore1_app.c ****   } // endof while(TRUE)
 829              		.loc 1 119 5 discriminator 4 view .LVU226
 830 019a A378     		ldrb	r3, [r4, #2]	@ zero_extendqisi2
 831 019c 23F00103 		bic	r3, r3, #1
 832 01a0 A370     		strb	r3, [r4, #2]
 833 01a2 71E7     		b	.L76
 834              	.LVL25:
 835              	.L54:
 121:src/semaphore1_app.c **** } // end task1()
 836              		.loc 1 121 3 view .LVU227
 121:src/semaphore1_app.c **** } // end task1()
 837              		.loc 1 121 3 view .LVU228
 838 01a4 0823     		movs	r3, #8
 839 01a6 A370     		strb	r3, [r4, #2]
 121:src/semaphore1_app.c **** } // end task1()
 840              		.loc 1 121 3 view .LVU229
 841 01a8 0023     		movs	r3, #0
 842 01aa 2380     		strh	r3, [r4]	@ movhi
 121:src/semaphore1_app.c **** } // end task1()
 843              		.loc 1 121 3 view .LVU230
 121:src/semaphore1_app.c **** } // end task1()
 844              		.loc 1 121 3 view .LVU231
 121:src/semaphore1_app.c **** } // end task1()
 845              		.loc 1 121 3 view .LVU232
 846 01ac 0325     		movs	r5, #3
 847              	.LVL26:
 848              	.L62:
 121:src/semaphore1_app.c **** } // end task1()
 849              		.loc 1 121 18 discriminator 1 view .LVU233
 122:src/semaphore1_app.c **** 
 850              		.loc 1 122 1 is_stmt 0 discriminator 1 view .LVU234
 851 01ae 2846     		mov	r0, r5
 852 01b0 38BD     		pop	{r3, r4, r5, pc}
 853              	.LVL27:
 854              	.L84:
 122:src/semaphore1_app.c **** 
 855              		.loc 1 122 1 discriminator 1 view .LVU235
 856 01b2 00BF     		.align	2
 857              	.L83:
 858 01b4 00000000 		.word	__esos_u32SystemFlags
 859 01b8 00000000 		.word	__stChildTaskTx
 860 01bc 00000000 		.word	.LANCHOR3
 861 01c0 00000000 		.word	.LANCHOR4
 862 01c4 00000000 		.word	.LANCHOR2
ARM GAS  C:\Users\Travis\AppData\Local\Temp\ccPHtQoW.s 			page 22


 863 01c8 00000000 		.word	sem_T2CanRun
 864              		.cfi_endproc
 865              	.LFE1:
 867              		.section	.text.getRandomDelay,"ax",%progbits
 868              		.align	1
 869              		.global	getRandomDelay
 870              		.syntax unified
 871              		.thumb
 872              		.thumb_func
 873              		.fpu fpv4-sp-d16
 875              	getRandomDelay:
 876              	.LFB3:
 154:src/semaphore1_app.c ****   return ((esos_GetRandomUint32() & 0x0FFF)|0x100);
 877              		.loc 1 154 34 is_stmt 1 view -0
 878              		.cfi_startproc
 879              		@ args = 0, pretend = 0, frame = 0
 880              		@ frame_needed = 0, uses_anonymous_args = 0
 881 0000 08B5     		push	{r3, lr}
 882              	.LCFI3:
 883              		.cfi_def_cfa_offset 8
 884              		.cfi_offset 3, -8
 885              		.cfi_offset 14, -4
 886              		.loc 1 155 3 view .LVU237
 887              		.loc 1 155 12 is_stmt 0 view .LVU238
 888 0002 FFF7FEFF 		bl	esos_GetRandomUint32
 889              	.LVL28:
 890              		.loc 1 155 44 view .LVU239
 891 0006 20F48070 		bic	r0, r0, #256
 892 000a 0005     		lsls	r0, r0, #20
 893 000c 000D     		lsrs	r0, r0, #20
 156:src/semaphore1_app.c **** }
 894              		.loc 1 156 1 view .LVU240
 895 000e 40F48070 		orr	r0, r0, #256
 896 0012 08BD     		pop	{r3, pc}
 897              		.cfi_endproc
 898              	.LFE3:
 900              		.section	.text.__user_init_hw,"ax",%progbits
 901              		.align	1
 902              		.global	__user_init_hw
 903              		.syntax unified
 904              		.thumb
 905              		.thumb_func
 906              		.fpu fpv4-sp-d16
 908              	__user_init_hw:
 909              	.LFB4:
 157:src/semaphore1_app.c **** 
 158:src/semaphore1_app.c ****  
 159:src/semaphore1_app.c **** void __user_init_hw(void) {
 910              		.loc 1 159 27 is_stmt 1 view -0
 911              		.cfi_startproc
 912              		@ args = 0, pretend = 0, frame = 0
 913              		@ frame_needed = 0, uses_anonymous_args = 0
 914 0000 08B5     		push	{r3, lr}
 915              	.LCFI4:
 916              		.cfi_def_cfa_offset 8
 917              		.cfi_offset 3, -8
 918              		.cfi_offset 14, -4
ARM GAS  C:\Users\Travis\AppData\Local\Temp\ccPHtQoW.s 			page 23


 160:src/semaphore1_app.c ****   /* GPIO Ports Clock Enable */
 161:src/semaphore1_app.c ****   rcc_periph_clock_enable(GPIOA);
 919              		.loc 1 161 3 view .LVU242
 920 0002 0020     		movs	r0, #0
 921 0004 FFF7FEFF 		bl	rcc_periph_clock_enable
 922              	.LVL29:
 162:src/semaphore1_app.c ****   rcc_periph_clock_enable(GPIOC);
 923              		.loc 1 162 3 view .LVU243
 924 0008 4FF40060 		mov	r0, #2048
 925 000c FFF7FEFF 		bl	rcc_periph_clock_enable
 926              	.LVL30:
 163:src/semaphore1_app.c **** 
 164:src/semaphore1_app.c ****   /*Configure GPIO pin : PC13 */
 165:src/semaphore1_app.c ****   gpio_mode_setup(SW1_GPIO_Port, GPIO_MODE_INPUT, GPIO_PUPD_NONE, SW1_Pin);
 927              		.loc 1 165 3 view .LVU244
 928 0010 4FF40053 		mov	r3, #8192
 929 0014 0022     		movs	r2, #0
 930 0016 1146     		mov	r1, r2
 931 0018 0548     		ldr	r0, .L89
 932 001a FFF7FEFF 		bl	gpio_mode_setup
 933              	.LVL31:
 166:src/semaphore1_app.c **** 
 167:src/semaphore1_app.c ****   /*Configure GPIO pin : LED2_Pin */
 168:src/semaphore1_app.c ****   gpio_mode_setup(LED2_GPIO_Port, GPIO_MODE_OUTPUT, GPIO_PUPD_NONE, LED2_Pin);
 934              		.loc 1 168 3 view .LVU245
 935 001e 2023     		movs	r3, #32
 936 0020 0022     		movs	r2, #0
 937 0022 0121     		movs	r1, #1
 938 0024 4FF09040 		mov	r0, #1207959552
 939 0028 FFF7FEFF 		bl	gpio_mode_setup
 940              	.LVL32:
 169:src/semaphore1_app.c **** 
 170:src/semaphore1_app.c **** }
 941              		.loc 1 170 1 is_stmt 0 view .LVU246
 942 002c 08BD     		pop	{r3, pc}
 943              	.L90:
 944 002e 00BF     		.align	2
 945              	.L89:
 946 0030 00080048 		.word	1207961600
 947              		.cfi_endproc
 948              	.LFE4:
 950              		.section	.rodata.user_init.str1.4,"aMS",%progbits,1
 951              		.align	2
 952              	.LC0:
 953 0000 0A737263 		.ascii	"\012src/semaphore1_app.c, built on Mar 10 2020 at 2"
 953      2F73656D 
 953      6170686F 
 953      7265315F 
 953      6170702E 
 954 0030 333A3234 		.ascii	"3:24:07\012\000"
 954      3A30370A 
 954      00
 955              		.section	.text.user_init,"ax",%progbits
 956              		.align	1
 957              		.global	user_init
 958              		.syntax unified
 959              		.thumb
ARM GAS  C:\Users\Travis\AppData\Local\Temp\ccPHtQoW.s 			page 24


 960              		.thumb_func
 961              		.fpu fpv4-sp-d16
 963              	user_init:
 964              	.LFB5:
 171:src/semaphore1_app.c **** 
 172:src/semaphore1_app.c **** 
 173:src/semaphore1_app.c **** 
 174:src/semaphore1_app.c **** /******************************************************************************
 175:src/semaphore1_app.c ****  * Function:        void user_init(void)
 176:src/semaphore1_app.c ****  *
 177:src/semaphore1_app.c ****  * PreCondition:    None
 178:src/semaphore1_app.c ****  *
 179:src/semaphore1_app.c ****  * Input:           None
 180:src/semaphore1_app.c ****  *
 181:src/semaphore1_app.c ****  * Output:          None
 182:src/semaphore1_app.c ****  *
 183:src/semaphore1_app.c ****  * Side Effects:    None
 184:src/semaphore1_app.c ****  *
 185:src/semaphore1_app.c ****  * Overview:        user_init is a centralized initialization routine where
 186:src/semaphore1_app.c ****  *                  the user can setup their application.   It is called
 187:src/semaphore1_app.c ****  *                  automagically by ES_OS during the operating system
 188:src/semaphore1_app.c ****  *                  initialization.
 189:src/semaphore1_app.c ****  *
 190:src/semaphore1_app.c ****  * Note:            The user should set up any state machines and init
 191:src/semaphore1_app.c ****  *                  all application variables.  They can also turn on
 192:src/semaphore1_app.c ****  *                  any needed peripherals here.
 193:src/semaphore1_app.c ****  *
 194:src/semaphore1_app.c ****  *                  The user SHALL NOT mess with the interrupt hardware
 195:src/semaphore1_app.c ****  *                  directly!!!  The ES_OS must be aware of the interrupts
 196:src/semaphore1_app.c ****  *                  and provides osXXXXXXX functions for the user to use.
 197:src/semaphore1_app.c ****  *                  Using these ES_OS-provided functions, the user may
 198:src/semaphore1_app.c ****  *                  (and probably should) initialize, register, and enable
 199:src/semaphore1_app.c ****  *                  interrupts in this routine.
 200:src/semaphore1_app.c ****  *
 201:src/semaphore1_app.c ****  *                  Furthermore, the user should register AT LEAST one
 202:src/semaphore1_app.c ****  *                  user application task here (via esos_RegisterTask) or
 203:src/semaphore1_app.c ****  *                  the ES_OS scheduler will have nothing to schedule
 204:src/semaphore1_app.c ****  *                  to run when this function returns.
 205:src/semaphore1_app.c ****  *
 206:src/semaphore1_app.c ****  *****************************************************************************/
 207:src/semaphore1_app.c **** void user_init(void) {
 965              		.loc 1 207 22 is_stmt 1 view -0
 966              		.cfi_startproc
 967              		@ args = 0, pretend = 0, frame = 0
 968              		@ frame_needed = 0, uses_anonymous_args = 0
 969 0000 08B5     		push	{r3, lr}
 970              	.LCFI5:
 971              		.cfi_def_cfa_offset 8
 972              		.cfi_offset 3, -8
 973              		.cfi_offset 14, -4
 208:src/semaphore1_app.c **** 
 209:src/semaphore1_app.c ****   // setup our software structures here
 210:src/semaphore1_app.c ****   
 211:src/semaphore1_app.c ****   // call our function to setup the hardware we like it.
 212:src/semaphore1_app.c ****   __user_init_hw();
 974              		.loc 1 212 3 view .LVU248
 975 0002 FFF7FEFF 		bl	__user_init_hw
ARM GAS  C:\Users\Travis\AppData\Local\Temp\ccPHtQoW.s 			page 25


 976              	.LVL33:
 213:src/semaphore1_app.c **** 
 214:src/semaphore1_app.c ****   // Drive the UART directly.....  to print the HELLO_MSG
 215:src/semaphore1_app.c ****   __esos_unsafe_PutString( HELLO_MSG );
 977              		.loc 1 215 3 view .LVU249
 978 0006 0648     		ldr	r0, .L93
 979 0008 FFF7FEFF 		bl	__esos_unsafe_PutString
 980              	.LVL34:
 216:src/semaphore1_app.c **** 
 217:src/semaphore1_app.c ****   /*
 218:src/semaphore1_app.c ****    * Now, let's get down and dirty with ESOS and our user tasks
 219:src/semaphore1_app.c ****    *
 220:src/semaphore1_app.c ****    *   Once tasks are registered, they will start executing in
 221:src/semaphore1_app.c ****    *   the ESOS scheduler.
 222:src/semaphore1_app.c ****    */
 223:src/semaphore1_app.c ****   esos_RegisterTask( task_flash_LED );
 981              		.loc 1 223 3 view .LVU250
 982 000c 0548     		ldr	r0, .L93+4
 983 000e FFF7FEFF 		bl	esos_RegisterTask
 984              	.LVL35:
 224:src/semaphore1_app.c ****   esos_RegisterTask( task1 );
 985              		.loc 1 224 3 view .LVU251
 986 0012 0548     		ldr	r0, .L93+8
 987 0014 FFF7FEFF 		bl	esos_RegisterTask
 988              	.LVL36:
 225:src/semaphore1_app.c ****   esos_RegisterTask( task2 );
 989              		.loc 1 225 3 view .LVU252
 990 0018 0448     		ldr	r0, .L93+12
 991 001a FFF7FEFF 		bl	esos_RegisterTask
 992              	.LVL37:
 226:src/semaphore1_app.c **** 
 227:src/semaphore1_app.c **** } // end user_init()
 993              		.loc 1 227 1 is_stmt 0 view .LVU253
 994 001e 08BD     		pop	{r3, pc}
 995              	.L94:
 996              		.align	2
 997              	.L93:
 998 0020 00000000 		.word	.LC0
 999 0024 00000000 		.word	task_flash_LED
 1000 0028 00000000 		.word	task1
 1001 002c 00000000 		.word	task2
 1002              		.cfi_endproc
 1003              	.LFE5:
 1005              		.comm	sem_T2CanRun,2,4
 1006              		.global	psz_T2
 1007              		.global	psz_T1
 1008              		.global	psz_CRNL
 1009              		.section	.bss.u8_cnt.6755,"aw",%nobits
 1010              		.set	.LANCHOR4,. + 0
 1013              	u8_cnt.6755:
 1014 0000 00       		.space	1
 1015              		.section	.bss.u8_cnt.6766,"aw",%nobits
 1016              		.set	.LANCHOR1,. + 0
 1019              	u8_cnt.6766:
 1020 0000 00       		.space	1
 1021              		.section	.data.psz_CRNL,"aw"
 1022              		.align	2
ARM GAS  C:\Users\Travis\AppData\Local\Temp\ccPHtQoW.s 			page 26


 1023              		.set	.LANCHOR2,. + 0
 1026              	psz_CRNL:
 1027 0000 0D0A00   		.ascii	"\015\012\000"
 1028              		.section	.data.psz_T1,"aw"
 1029              		.align	2
 1030              		.set	.LANCHOR3,. + 0
 1033              	psz_T1:
 1034 0000 5461736B 		.ascii	"Task 1: \000"
 1034      20313A20 
 1034      00
 1035              		.section	.data.psz_T2,"aw"
 1036              		.align	2
 1037              		.set	.LANCHOR0,. + 0
 1040              	psz_T2:
 1041 0000 5461736B 		.ascii	"Task 2: \000"
 1041      20323A20 
 1041      00
 1042              		.text
 1043              	.Letext0:
 1044              		.file 2 "c:\\program files (x86)\\gnu tools arm embedded\\9 2019-q4-major\\arm-none-eabi\\include\
 1045              		.file 3 "c:\\program files (x86)\\gnu tools arm embedded\\9 2019-q4-major\\arm-none-eabi\\include\
 1046              		.file 4 "C:/MinGW/msys/1.0/esos32/include/lc-switch.h"
 1047              		.file 5 "C:/MinGW/msys/1.0/esos32/include/esos_cb.h"
 1048              		.file 6 "C:/MinGW/msys/1.0/esos32/include/esos_mail.h"
 1049              		.file 7 "C:/MinGW/msys/1.0/esos32/include/esos_task.h"
 1050              		.file 8 "C:/MinGW/msys/1.0/esos32/include/esos_utils.h"
 1051              		.file 9 "C:/MinGW/msys/1.0/esos32/include/esos_comm.h"
 1052              		.file 10 "C:/MinGW/msys/1.0/esos32/include/esos.h"
 1053              		.file 11 "C:/MinGW/msys/1.0/libopencm3-master/libopencm3-master/include/libopencm3/stm32/l4/rcc.h"
 1054              		.file 12 "C:/MinGW/msys/1.0/esos32/include/stm32l4_ocm3/esos_stm32l4_rs232.h"
 1055              		.file 13 "C:/MinGW/msys/1.0/libopencm3-master/libopencm3-master/include/libopencm3/stm32/common/rc
 1056              		.file 14 "C:/MinGW/msys/1.0/libopencm3-master/libopencm3-master/include/libopencm3/stm32/common/gp
 1057              		.file 15 "C:/MinGW/msys/1.0/libopencm3-master/libopencm3-master/include/libopencm3/stm32/common/gp
 1058              		.file 16 "C:/MinGW/msys/1.0/esos32/include/all_generic.h"
ARM GAS  C:\Users\Travis\AppData\Local\Temp\ccPHtQoW.s 			page 27

