ARM GAS  C:\Users\Travis\AppData\Local\Temp\cc9OlBmU.s 			page 1


   1              		.cpu cortex-m4
   2              		.eabi_attribute 27, 1
   3              		.eabi_attribute 28, 1
   4              		.eabi_attribute 20, 1
   5              		.eabi_attribute 21, 1
   6              		.eabi_attribute 23, 3
   7              		.eabi_attribute 24, 1
   8              		.eabi_attribute 25, 1
   9              		.eabi_attribute 26, 1
  10              		.eabi_attribute 30, 1
  11              		.eabi_attribute 34, 1
  12              		.eabi_attribute 18, 4
  13              		.file	"esos_cb.c"
  14              		.text
  15              	.Ltext0:
  16              		.cfi_sections	.debug_frame
  17              		.section	.text.__esos_CB_Init,"ax",%progbits
  18              		.align	1
  19              		.global	__esos_CB_Init
  20              		.arch armv7e-m
  21              		.syntax unified
  22              		.thumb
  23              		.thumb_func
  24              		.fpu fpv4-sp-d16
  26              	__esos_CB_Init:
  27              	.LVL0:
  28              	.LFB0:
  29              		.file 1 "C:/MinGW/msys/1.0/esos32/src/esos_cb.c"
   1:C:/MinGW/msys/1.0/esos32/src\esos_cb.c **** /*
   2:C:/MinGW/msys/1.0/esos32/src\esos_cb.c ****  * "Copyright (c) 2019 J. W. Bruce ("AUTHOR(S)")"
   3:C:/MinGW/msys/1.0/esos32/src\esos_cb.c ****  * All rights reserved.
   4:C:/MinGW/msys/1.0/esos32/src\esos_cb.c ****  * (J. W. Bruce, jwbruce_AT_tntech.edu, Tennessee Tech University)
   5:C:/MinGW/msys/1.0/esos32/src\esos_cb.c ****  *
   6:C:/MinGW/msys/1.0/esos32/src\esos_cb.c ****  * Permission to use, copy, modify, and distribute this software and its
   7:C:/MinGW/msys/1.0/esos32/src\esos_cb.c ****  * documentation for any purpose, without fee, and without written agreement is
   8:C:/MinGW/msys/1.0/esos32/src\esos_cb.c ****  * hereby granted, provided that the above copyright notice, the following
   9:C:/MinGW/msys/1.0/esos32/src\esos_cb.c ****  * two paragraphs and the authors appear in all copies of this software.
  10:C:/MinGW/msys/1.0/esos32/src\esos_cb.c ****  *
  11:C:/MinGW/msys/1.0/esos32/src\esos_cb.c ****  * IN NO EVENT SHALL THE "AUTHORS" BE LIABLE TO ANY PARTY FOR
  12:C:/MinGW/msys/1.0/esos32/src\esos_cb.c ****  * DIRECT, INDIRECT, SPECIAL, INCIDENTAL, OR CONSEQUENTIAL DAMAGES ARISING OUT
  13:C:/MinGW/msys/1.0/esos32/src\esos_cb.c ****  * OF THE USE OF THIS SOFTWARE AND ITS DOCUMENTATION, EVEN IF THE "AUTHORS"
  14:C:/MinGW/msys/1.0/esos32/src\esos_cb.c ****  * HAS BEEN ADVISED OF THE POSSIBILITY OF SUCH DAMAGE.
  15:C:/MinGW/msys/1.0/esos32/src\esos_cb.c ****  *
  16:C:/MinGW/msys/1.0/esos32/src\esos_cb.c ****  * THE "AUTHORS" SPECIFICALLY DISCLAIMS ANY WARRANTIES,
  17:C:/MinGW/msys/1.0/esos32/src\esos_cb.c ****  * INCLUDING, BUT NOT LIMITED TO, THE IMPLIED WARRANTIES OF MERCHANTABILITY
  18:C:/MinGW/msys/1.0/esos32/src\esos_cb.c ****  * AND FITNESS FOR A PARTICULAR PURPOSE.  THE SOFTWARE PROVIDED HEREUNDER IS
  19:C:/MinGW/msys/1.0/esos32/src\esos_cb.c ****  * ON AN "AS IS" BASIS, AND THE "AUTHORS" HAS NO OBLIGATION TO
  20:C:/MinGW/msys/1.0/esos32/src\esos_cb.c ****  * PROVIDE MAINTENANCE, SUPPORT, UPDATES, ENHANCEMENTS, OR MODIFICATIONS."
  21:C:/MinGW/msys/1.0/esos32/src\esos_cb.c ****  *
  22:C:/MinGW/msys/1.0/esos32/src\esos_cb.c ****  * Please maintain this header in its entirety when copying/modifying
  23:C:/MinGW/msys/1.0/esos32/src\esos_cb.c ****  * these files.
  24:C:/MinGW/msys/1.0/esos32/src\esos_cb.c ****  *
  25:C:/MinGW/msys/1.0/esos32/src\esos_cb.c ****  *
  26:C:/MinGW/msys/1.0/esos32/src\esos_cb.c ****  */
  27:C:/MinGW/msys/1.0/esos32/src\esos_cb.c **** 
  28:C:/MinGW/msys/1.0/esos32/src\esos_cb.c **** /** \file
  29:C:/MinGW/msys/1.0/esos32/src\esos_cb.c ****  * \brief Circular buffer routines for ESOS32
ARM GAS  C:\Users\Travis\AppData\Local\Temp\cc9OlBmU.s 			page 2


  30:C:/MinGW/msys/1.0/esos32/src\esos_cb.c ****  *
  31:C:/MinGW/msys/1.0/esos32/src\esos_cb.c ****  */
  32:C:/MinGW/msys/1.0/esos32/src\esos_cb.c **** 
  33:C:/MinGW/msys/1.0/esos32/src\esos_cb.c **** 
  34:C:/MinGW/msys/1.0/esos32/src\esos_cb.c **** #include    "esos.h"
  35:C:/MinGW/msys/1.0/esos32/src\esos_cb.c **** #include    "esos_cb.h"
  36:C:/MinGW/msys/1.0/esos32/src\esos_cb.c **** 
  37:C:/MinGW/msys/1.0/esos32/src\esos_cb.c **** // ******** G L O B A L S ***************
  38:C:/MinGW/msys/1.0/esos32/src\esos_cb.c **** 
  39:C:/MinGW/msys/1.0/esos32/src\esos_cb.c **** /****************************************************************
  40:C:/MinGW/msys/1.0/esos32/src\esos_cb.c **** ** F U N C T I O N S
  41:C:/MinGW/msys/1.0/esos32/src\esos_cb.c **** ****************************************************************/
  42:C:/MinGW/msys/1.0/esos32/src\esos_cb.c **** void __esos_CB_Init(CBUFFER* pst_CBuffer, uint8_t* pau8_ptr, uint16_t u16_Len) {
  30              		.loc 1 42 80 view -0
  31              		.cfi_startproc
  32              		@ args = 0, pretend = 0, frame = 0
  33              		@ frame_needed = 0, uses_anonymous_args = 0
  34              		@ link register save eliminated.
  43:C:/MinGW/msys/1.0/esos32/src\esos_cb.c ****   // setup (or reset) the circular buffer descriptors
  44:C:/MinGW/msys/1.0/esos32/src\esos_cb.c ****   pst_CBuffer->u16_Start = 0;
  35              		.loc 1 44 3 view .LVU1
  36              		.loc 1 44 26 is_stmt 0 view .LVU2
  37 0000 0023     		movs	r3, #0
  38 0002 4380     		strh	r3, [r0, #2]	@ movhi
  45:C:/MinGW/msys/1.0/esos32/src\esos_cb.c ****   pst_CBuffer->u16_Count = 0;
  39              		.loc 1 45 3 is_stmt 1 view .LVU3
  40              		.loc 1 45 26 is_stmt 0 view .LVU4
  41 0004 8380     		strh	r3, [r0, #4]	@ movhi
  46:C:/MinGW/msys/1.0/esos32/src\esos_cb.c ****   pst_CBuffer->u16_Length = u16_Len;
  42              		.loc 1 46 3 is_stmt 1 view .LVU5
  43              		.loc 1 46 27 is_stmt 0 view .LVU6
  44 0006 0280     		strh	r2, [r0]	@ movhi
  47:C:/MinGW/msys/1.0/esos32/src\esos_cb.c ****   pst_CBuffer->pau8_Data = pau8_ptr;
  45              		.loc 1 47 3 is_stmt 1 view .LVU7
  46              		.loc 1 47 26 is_stmt 0 view .LVU8
  47 0008 8160     		str	r1, [r0, #8]
  48:C:/MinGW/msys/1.0/esos32/src\esos_cb.c **** } // endof __esos_CB_Init()
  48              		.loc 1 48 1 view .LVU9
  49 000a 7047     		bx	lr
  50              		.cfi_endproc
  51              	.LFE0:
  53              		.section	.text.__esos_CB_WriteUINT8,"ax",%progbits
  54              		.align	1
  55              		.global	__esos_CB_WriteUINT8
  56              		.syntax unified
  57              		.thumb
  58              		.thumb_func
  59              		.fpu fpv4-sp-d16
  61              	__esos_CB_WriteUINT8:
  62              	.LVL1:
  63              	.LFB1:
  49:C:/MinGW/msys/1.0/esos32/src\esos_cb.c **** 
  50:C:/MinGW/msys/1.0/esos32/src\esos_cb.c **** 
  51:C:/MinGW/msys/1.0/esos32/src\esos_cb.c **** /******************************************
  52:C:/MinGW/msys/1.0/esos32/src\esos_cb.c **** *** LOCAL HELPER MACROS
  53:C:/MinGW/msys/1.0/esos32/src\esos_cb.c **** ******************************************/
  54:C:/MinGW/msys/1.0/esos32/src\esos_cb.c **** #define __WRITE_CB_UINT8(pstB,u8x,u16e)                                       \
ARM GAS  C:\Users\Travis\AppData\Local\Temp\cc9OlBmU.s 			page 3


  55:C:/MinGW/msys/1.0/esos32/src\esos_cb.c ****   do {                                                                        \
  56:C:/MinGW/msys/1.0/esos32/src\esos_cb.c ****     if ((pstB)->u16_Count < (pstB)->u16_Length) {                             \
  57:C:/MinGW/msys/1.0/esos32/src\esos_cb.c ****       (u16e) = ((pstB)->u16_Start + (pstB)->u16_Count) % (pstB)->u16_Length;  \
  58:C:/MinGW/msys/1.0/esos32/src\esos_cb.c ****       (pstB)->pau8_Data[(u16e)] = (u8x);                                      \
  59:C:/MinGW/msys/1.0/esos32/src\esos_cb.c ****       ++(pstB)->u16_Count;                                                    \
  60:C:/MinGW/msys/1.0/esos32/src\esos_cb.c ****     }                                                                         \
  61:C:/MinGW/msys/1.0/esos32/src\esos_cb.c ****   }while(0)
  62:C:/MinGW/msys/1.0/esos32/src\esos_cb.c **** 
  63:C:/MinGW/msys/1.0/esos32/src\esos_cb.c **** #define __OVERWRITE_CB_UINT8(pstB,u8x,u16e)                                   \
  64:C:/MinGW/msys/1.0/esos32/src\esos_cb.c ****   do {                                                                        \
  65:C:/MinGW/msys/1.0/esos32/src\esos_cb.c ****     (u16e) = ((pstB)->u16_Start + (pstB)->u16_Count) % (pstB)->u16_Length;    \
  66:C:/MinGW/msys/1.0/esos32/src\esos_cb.c ****     (pstB)->pau8_Data[(u16e)] = (u8x);                                        \
  67:C:/MinGW/msys/1.0/esos32/src\esos_cb.c ****     if ((pstB)->u16_Count == (pstB)->u16_Length)                              \
  68:C:/MinGW/msys/1.0/esos32/src\esos_cb.c ****       (pstB)->u16_Start = ((pstB)->u16_Start + 1) % (pstB)->u16_Length;       \
  69:C:/MinGW/msys/1.0/esos32/src\esos_cb.c ****     else                                                                      \
  70:C:/MinGW/msys/1.0/esos32/src\esos_cb.c ****       ++(pstB)->u16_Count;                                                    \
  71:C:/MinGW/msys/1.0/esos32/src\esos_cb.c ****   }while(0)
  72:C:/MinGW/msys/1.0/esos32/src\esos_cb.c **** 
  73:C:/MinGW/msys/1.0/esos32/src\esos_cb.c **** #define __READ_CB_UINT8(pstB,u8x)                                             \
  74:C:/MinGW/msys/1.0/esos32/src\esos_cb.c ****   do {                                                                        \
  75:C:/MinGW/msys/1.0/esos32/src\esos_cb.c ****     (u8x) = (pstB)->pau8_Data[(pstB)->u16_Start];                             \
  76:C:/MinGW/msys/1.0/esos32/src\esos_cb.c ****     (pstB)->u16_Start = ((pstB)->u16_Start + 1) % (pstB)->u16_Length;         \
  77:C:/MinGW/msys/1.0/esos32/src\esos_cb.c ****     --(pstB)->u16_Count;                                                      \
  78:C:/MinGW/msys/1.0/esos32/src\esos_cb.c ****   } while(0)
  79:C:/MinGW/msys/1.0/esos32/src\esos_cb.c **** 
  80:C:/MinGW/msys/1.0/esos32/src\esos_cb.c **** 
  81:C:/MinGW/msys/1.0/esos32/src\esos_cb.c **** /***************************************************************
  82:C:/MinGW/msys/1.0/esos32/src\esos_cb.c **** **** WRITERs
  83:C:/MinGW/msys/1.0/esos32/src\esos_cb.c **** ***************************************************************/
  84:C:/MinGW/msys/1.0/esos32/src\esos_cb.c **** 
  85:C:/MinGW/msys/1.0/esos32/src\esos_cb.c **** /**
  86:C:/MinGW/msys/1.0/esos32/src\esos_cb.c **** * Writes byte data to a circular buffer
  87:C:/MinGW/msys/1.0/esos32/src\esos_cb.c **** *
  88:C:/MinGW/msys/1.0/esos32/src\esos_cb.c **** * \param pst_CBuffer  pointer to structure (CBUFFER) describing the circular buffer
  89:C:/MinGW/msys/1.0/esos32/src\esos_cb.c **** * \param u8_x     data to write to the circular buffer
  90:C:/MinGW/msys/1.0/esos32/src\esos_cb.c **** * \note This function <em>ASSUMES</em> that there is ample free
  91:C:/MinGW/msys/1.0/esos32/src\esos_cb.c **** * space available in specified circular buffer.
  92:C:/MinGW/msys/1.0/esos32/src\esos_cb.c **** *
  93:C:/MinGW/msys/1.0/esos32/src\esos_cb.c **** * \hideinitializer
  94:C:/MinGW/msys/1.0/esos32/src\esos_cb.c **** */
  95:C:/MinGW/msys/1.0/esos32/src\esos_cb.c **** void __esos_CB_WriteUINT8(CBUFFER* pst_CBuffer, uint8_t u8_x ) {
  64              		.loc 1 95 64 is_stmt 1 view -0
  65              		.cfi_startproc
  66              		@ args = 0, pretend = 0, frame = 0
  67              		@ frame_needed = 0, uses_anonymous_args = 0
  68              		@ link register save eliminated.
  69              		.loc 1 95 64 is_stmt 0 view .LVU11
  70 0000 10B4     		push	{r4}
  71              	.LCFI0:
  72              		.cfi_def_cfa_offset 4
  73              		.cfi_offset 4, -4
  96:C:/MinGW/msys/1.0/esos32/src\esos_cb.c ****   uint16_t    u16_end;
  74              		.loc 1 96 3 is_stmt 1 view .LVU12
  97:C:/MinGW/msys/1.0/esos32/src\esos_cb.c **** 
  98:C:/MinGW/msys/1.0/esos32/src\esos_cb.c ****   __WRITE_CB_UINT8(pst_CBuffer,u8_x,u16_end);
  75              		.loc 1 98 3 view .LVU13
  76              		.loc 1 98 3 view .LVU14
ARM GAS  C:\Users\Travis\AppData\Local\Temp\cc9OlBmU.s 			page 4


  77 0002 8488     		ldrh	r4, [r0, #4]
  78 0004 0288     		ldrh	r2, [r0]
  79 0006 9442     		cmp	r4, r2
  80 0008 0BD2     		bcs	.L2
  81              		.loc 1 98 3 discriminator 1 view .LVU15
  82 000a 4388     		ldrh	r3, [r0, #2]
  83 000c 1C44     		add	r4, r4, r3
  84 000e 94FBF2F3 		sdiv	r3, r4, r2
  85 0012 02FB1343 		mls	r3, r2, r3, r4
  86              	.LVL2:
  87              		.loc 1 98 3 discriminator 1 view .LVU16
  88 0016 8268     		ldr	r2, [r0, #8]
  89 0018 9BB2     		uxth	r3, r3
  90              		.loc 1 98 3 is_stmt 0 discriminator 1 view .LVU17
  91 001a D154     		strb	r1, [r2, r3]
  92              		.loc 1 98 3 is_stmt 1 discriminator 1 view .LVU18
  93 001c 8388     		ldrh	r3, [r0, #4]
  94              	.LVL3:
  95              		.loc 1 98 3 is_stmt 0 discriminator 1 view .LVU19
  96 001e 0133     		adds	r3, r3, #1
  97 0020 8380     		strh	r3, [r0, #4]	@ movhi
  98              		.loc 1 98 3 is_stmt 1 discriminator 1 view .LVU20
  99              	.L2:
  99:C:/MinGW/msys/1.0/esos32/src\esos_cb.c **** } // end __esos_CB_WriteUINT8()
 100              		.loc 1 99 1 is_stmt 0 view .LVU21
 101 0022 5DF8044B 		ldr	r4, [sp], #4
 102              	.LCFI1:
 103              		.cfi_restore 4
 104              		.cfi_def_cfa_offset 0
 105 0026 7047     		bx	lr
 106              		.cfi_endproc
 107              	.LFE1:
 109              		.section	.text.__esos_CB_OverwriteUINT8,"ax",%progbits
 110              		.align	1
 111              		.global	__esos_CB_OverwriteUINT8
 112              		.syntax unified
 113              		.thumb
 114              		.thumb_func
 115              		.fpu fpv4-sp-d16
 117              	__esos_CB_OverwriteUINT8:
 118              	.LVL4:
 119              	.LFB2:
 100:C:/MinGW/msys/1.0/esos32/src\esos_cb.c **** 
 101:C:/MinGW/msys/1.0/esos32/src\esos_cb.c **** void __esos_CB_OverwriteUINT8(CBUFFER* pst_CBuffer, uint8_t u8_x ) {
 120              		.loc 1 101 68 is_stmt 1 view -0
 121              		.cfi_startproc
 122              		@ args = 0, pretend = 0, frame = 0
 123              		@ frame_needed = 0, uses_anonymous_args = 0
 124              		@ link register save eliminated.
 125              		.loc 1 101 68 is_stmt 0 view .LVU23
 126 0000 10B4     		push	{r4}
 127              	.LCFI2:
 128              		.cfi_def_cfa_offset 4
 129              		.cfi_offset 4, -4
 102:C:/MinGW/msys/1.0/esos32/src\esos_cb.c ****   uint16_t    u16_end;
 130              		.loc 1 102 3 is_stmt 1 view .LVU24
 103:C:/MinGW/msys/1.0/esos32/src\esos_cb.c **** 
ARM GAS  C:\Users\Travis\AppData\Local\Temp\cc9OlBmU.s 			page 5


 104:C:/MinGW/msys/1.0/esos32/src\esos_cb.c ****   __OVERWRITE_CB_UINT8(pst_CBuffer,u8_x,u16_end);
 131              		.loc 1 104 3 view .LVU25
 132              		.loc 1 104 3 view .LVU26
 133 0002 4388     		ldrh	r3, [r0, #2]
 134 0004 8288     		ldrh	r2, [r0, #4]
 135 0006 1A44     		add	r2, r2, r3
 136 0008 0488     		ldrh	r4, [r0]
 137 000a 92FBF4F3 		sdiv	r3, r2, r4
 138 000e 04FB1323 		mls	r3, r4, r3, r2
 139              	.LVL5:
 140              		.loc 1 104 3 view .LVU27
 141 0012 8268     		ldr	r2, [r0, #8]
 142 0014 9BB2     		uxth	r3, r3
 143              		.loc 1 104 3 is_stmt 0 view .LVU28
 144 0016 D154     		strb	r1, [r2, r3]
 145              		.loc 1 104 3 is_stmt 1 view .LVU29
 146 0018 8388     		ldrh	r3, [r0, #4]
 147              	.LVL6:
 148              		.loc 1 104 3 is_stmt 0 view .LVU30
 149 001a 0288     		ldrh	r2, [r0]
 150 001c 9342     		cmp	r3, r2
 151 001e 04D0     		beq	.L9
 152              		.loc 1 104 3 is_stmt 1 discriminator 2 view .LVU31
 153 0020 0133     		adds	r3, r3, #1
 154 0022 8380     		strh	r3, [r0, #4]	@ movhi
 155              		.loc 1 104 3 discriminator 2 view .LVU32
 156              	.LVL7:
 157              	.L5:
 105:C:/MinGW/msys/1.0/esos32/src\esos_cb.c **** } // end __esos_CB_OverwriteUINT8()
 158              		.loc 1 105 1 is_stmt 0 view .LVU33
 159 0024 5DF8044B 		ldr	r4, [sp], #4
 160              	.LCFI3:
 161              		.cfi_remember_state
 162              		.cfi_restore 4
 163              		.cfi_def_cfa_offset 0
 164 0028 7047     		bx	lr
 165              	.LVL8:
 166              	.L9:
 167              	.LCFI4:
 168              		.cfi_restore_state
 104:C:/MinGW/msys/1.0/esos32/src\esos_cb.c **** } // end __esos_CB_OverwriteUINT8()
 169              		.loc 1 104 3 is_stmt 1 discriminator 1 view .LVU34
 170 002a 4388     		ldrh	r3, [r0, #2]
 171 002c 0133     		adds	r3, r3, #1
 172 002e 93FBF2F1 		sdiv	r1, r3, r2
 173              	.LVL9:
 104:C:/MinGW/msys/1.0/esos32/src\esos_cb.c **** } // end __esos_CB_OverwriteUINT8()
 174              		.loc 1 104 3 is_stmt 0 discriminator 1 view .LVU35
 175 0032 02FB1132 		mls	r2, r2, r1, r3
 176 0036 4280     		strh	r2, [r0, #2]	@ movhi
 104:C:/MinGW/msys/1.0/esos32/src\esos_cb.c **** } // end __esos_CB_OverwriteUINT8()
 177              		.loc 1 104 3 discriminator 1 view .LVU36
 178 0038 F4E7     		b	.L5
 179              		.cfi_endproc
 180              	.LFE2:
 182              		.section	.text.__esos_CB_WriteUINT16,"ax",%progbits
 183              		.align	1
ARM GAS  C:\Users\Travis\AppData\Local\Temp\cc9OlBmU.s 			page 6


 184              		.global	__esos_CB_WriteUINT16
 185              		.syntax unified
 186              		.thumb
 187              		.thumb_func
 188              		.fpu fpv4-sp-d16
 190              	__esos_CB_WriteUINT16:
 191              	.LVL10:
 192              	.LFB3:
 106:C:/MinGW/msys/1.0/esos32/src\esos_cb.c **** 
 107:C:/MinGW/msys/1.0/esos32/src\esos_cb.c **** void __esos_CB_WriteUINT16(CBUFFER* pst_CBuffer, uint16_t u16_x ) {
 193              		.loc 1 107 67 is_stmt 1 view -0
 194              		.cfi_startproc
 195              		@ args = 0, pretend = 0, frame = 0
 196              		@ frame_needed = 0, uses_anonymous_args = 0
 197              		@ link register save eliminated.
 198              		.loc 1 107 67 is_stmt 0 view .LVU38
 199 0000 30B4     		push	{r4, r5}
 200              	.LCFI5:
 201              		.cfi_def_cfa_offset 8
 202              		.cfi_offset 4, -8
 203              		.cfi_offset 5, -4
 108:C:/MinGW/msys/1.0/esos32/src\esos_cb.c ****   uint16_t    u16_end;
 204              		.loc 1 108 3 is_stmt 1 view .LVU39
 109:C:/MinGW/msys/1.0/esos32/src\esos_cb.c ****   uint8_t     u8_temp;
 205              		.loc 1 109 3 view .LVU40
 110:C:/MinGW/msys/1.0/esos32/src\esos_cb.c **** 
 111:C:/MinGW/msys/1.0/esos32/src\esos_cb.c ****   u8_temp = (uint8_t) u16_x & 0xFF;
 206              		.loc 1 111 3 view .LVU41
 207              	.LVL11:
 112:C:/MinGW/msys/1.0/esos32/src\esos_cb.c ****   __WRITE_CB_UINT8(pst_CBuffer,u8_temp,u16_end);
 208              		.loc 1 112 3 view .LVU42
 209              		.loc 1 112 3 view .LVU43
 210 0002 8488     		ldrh	r4, [r0, #4]
 211 0004 0288     		ldrh	r2, [r0]
 212 0006 9442     		cmp	r4, r2
 213 0008 0CD2     		bcs	.L11
 214 000a CDB2     		uxtb	r5, r1
 215              		.loc 1 112 3 discriminator 1 view .LVU44
 216 000c 4388     		ldrh	r3, [r0, #2]
 217 000e 1C44     		add	r4, r4, r3
 218 0010 94FBF2F3 		sdiv	r3, r4, r2
 219 0014 02FB1343 		mls	r3, r2, r3, r4
 220              	.LVL12:
 221              		.loc 1 112 3 discriminator 1 view .LVU45
 222 0018 8268     		ldr	r2, [r0, #8]
 223 001a 9BB2     		uxth	r3, r3
 224              		.loc 1 112 3 is_stmt 0 discriminator 1 view .LVU46
 225 001c D554     		strb	r5, [r2, r3]
 226              		.loc 1 112 3 is_stmt 1 discriminator 1 view .LVU47
 227 001e 8388     		ldrh	r3, [r0, #4]
 228              	.LVL13:
 229              		.loc 1 112 3 is_stmt 0 discriminator 1 view .LVU48
 230 0020 0133     		adds	r3, r3, #1
 231 0022 8380     		strh	r3, [r0, #4]	@ movhi
 232              	.L11:
 233              		.loc 1 112 3 is_stmt 1 discriminator 3 view .LVU49
 113:C:/MinGW/msys/1.0/esos32/src\esos_cb.c ****   u8_temp = (uint8_t) (u16_x>>8);
ARM GAS  C:\Users\Travis\AppData\Local\Temp\cc9OlBmU.s 			page 7


 234              		.loc 1 113 3 discriminator 3 view .LVU50
 235              		.loc 1 113 11 is_stmt 0 discriminator 3 view .LVU51
 236 0024 090A     		lsrs	r1, r1, #8
 237              	.LVL14:
 114:C:/MinGW/msys/1.0/esos32/src\esos_cb.c ****   __WRITE_CB_UINT8(pst_CBuffer,u8_temp,u16_end);
 238              		.loc 1 114 3 is_stmt 1 discriminator 3 view .LVU52
 239              		.loc 1 114 3 discriminator 3 view .LVU53
 240 0026 8488     		ldrh	r4, [r0, #4]
 241 0028 0288     		ldrh	r2, [r0]
 242 002a 9442     		cmp	r4, r2
 243 002c 0BD2     		bcs	.L10
 244              		.loc 1 114 3 discriminator 1 view .LVU54
 245 002e 4388     		ldrh	r3, [r0, #2]
 246 0030 1C44     		add	r4, r4, r3
 247 0032 94FBF2F3 		sdiv	r3, r4, r2
 248 0036 02FB1343 		mls	r3, r2, r3, r4
 249              	.LVL15:
 250              		.loc 1 114 3 discriminator 1 view .LVU55
 251 003a 8268     		ldr	r2, [r0, #8]
 252 003c 9BB2     		uxth	r3, r3
 253              		.loc 1 114 3 is_stmt 0 discriminator 1 view .LVU56
 254 003e D154     		strb	r1, [r2, r3]
 255              		.loc 1 114 3 is_stmt 1 discriminator 1 view .LVU57
 256 0040 8388     		ldrh	r3, [r0, #4]
 257              	.LVL16:
 258              		.loc 1 114 3 is_stmt 0 discriminator 1 view .LVU58
 259 0042 0133     		adds	r3, r3, #1
 260 0044 8380     		strh	r3, [r0, #4]	@ movhi
 261              		.loc 1 114 3 is_stmt 1 discriminator 1 view .LVU59
 262              	.L10:
 115:C:/MinGW/msys/1.0/esos32/src\esos_cb.c **** } // end __esos_CB_WriteUINT16()
 263              		.loc 1 115 1 is_stmt 0 view .LVU60
 264 0046 30BC     		pop	{r4, r5}
 265              	.LCFI6:
 266              		.cfi_restore 5
 267              		.cfi_restore 4
 268              		.cfi_def_cfa_offset 0
 269 0048 7047     		bx	lr
 270              		.cfi_endproc
 271              	.LFE3:
 273              		.section	.text.__esos_CB_WriteUINT32,"ax",%progbits
 274              		.align	1
 275              		.global	__esos_CB_WriteUINT32
 276              		.syntax unified
 277              		.thumb
 278              		.thumb_func
 279              		.fpu fpv4-sp-d16
 281              	__esos_CB_WriteUINT32:
 282              	.LVL17:
 283              	.LFB4:
 116:C:/MinGW/msys/1.0/esos32/src\esos_cb.c **** 
 117:C:/MinGW/msys/1.0/esos32/src\esos_cb.c **** void __esos_CB_WriteUINT32(CBUFFER* pst_CBuffer, uint32_t u32_x ) {
 284              		.loc 1 117 67 is_stmt 1 view -0
 285              		.cfi_startproc
 286              		@ args = 0, pretend = 0, frame = 0
 287              		@ frame_needed = 0, uses_anonymous_args = 0
 288              		@ link register save eliminated.
ARM GAS  C:\Users\Travis\AppData\Local\Temp\cc9OlBmU.s 			page 8


 289              		.loc 1 117 67 is_stmt 0 view .LVU62
 290 0000 30B4     		push	{r4, r5}
 291              	.LCFI7:
 292              		.cfi_def_cfa_offset 8
 293              		.cfi_offset 4, -8
 294              		.cfi_offset 5, -4
 118:C:/MinGW/msys/1.0/esos32/src\esos_cb.c ****   uint16_t    u16_end;
 295              		.loc 1 118 3 is_stmt 1 view .LVU63
 119:C:/MinGW/msys/1.0/esos32/src\esos_cb.c ****   uint8_t     u8_temp;
 296              		.loc 1 119 3 view .LVU64
 120:C:/MinGW/msys/1.0/esos32/src\esos_cb.c **** 
 121:C:/MinGW/msys/1.0/esos32/src\esos_cb.c ****   u8_temp = (uint8_t) u32_x & 0xFF;
 297              		.loc 1 121 3 view .LVU65
 298              	.LVL18:
 122:C:/MinGW/msys/1.0/esos32/src\esos_cb.c ****   __WRITE_CB_UINT8(pst_CBuffer,u8_temp,u16_end);
 299              		.loc 1 122 3 view .LVU66
 300              		.loc 1 122 3 view .LVU67
 301 0002 8488     		ldrh	r4, [r0, #4]
 302 0004 0288     		ldrh	r2, [r0]
 303 0006 9442     		cmp	r4, r2
 304 0008 0CD2     		bcs	.L15
 305 000a CDB2     		uxtb	r5, r1
 306              		.loc 1 122 3 discriminator 1 view .LVU68
 307 000c 4388     		ldrh	r3, [r0, #2]
 308 000e 1C44     		add	r4, r4, r3
 309 0010 94FBF2F3 		sdiv	r3, r4, r2
 310 0014 02FB1343 		mls	r3, r2, r3, r4
 311              	.LVL19:
 312              		.loc 1 122 3 discriminator 1 view .LVU69
 313 0018 8268     		ldr	r2, [r0, #8]
 314 001a 9BB2     		uxth	r3, r3
 315              		.loc 1 122 3 is_stmt 0 discriminator 1 view .LVU70
 316 001c D554     		strb	r5, [r2, r3]
 317              		.loc 1 122 3 is_stmt 1 discriminator 1 view .LVU71
 318 001e 8388     		ldrh	r3, [r0, #4]
 319              	.LVL20:
 320              		.loc 1 122 3 is_stmt 0 discriminator 1 view .LVU72
 321 0020 0133     		adds	r3, r3, #1
 322 0022 8380     		strh	r3, [r0, #4]	@ movhi
 323              	.L15:
 324              		.loc 1 122 3 is_stmt 1 discriminator 3 view .LVU73
 123:C:/MinGW/msys/1.0/esos32/src\esos_cb.c ****   u8_temp = (uint8_t) (u32_x>>8);
 325              		.loc 1 123 3 discriminator 3 view .LVU74
 326              		.loc 1 123 11 is_stmt 0 discriminator 3 view .LVU75
 327 0024 C1F30725 		ubfx	r5, r1, #8, #8
 328              	.LVL21:
 124:C:/MinGW/msys/1.0/esos32/src\esos_cb.c ****   __WRITE_CB_UINT8(pst_CBuffer,u8_temp,u16_end);
 329              		.loc 1 124 3 is_stmt 1 discriminator 3 view .LVU76
 330              		.loc 1 124 3 discriminator 3 view .LVU77
 331 0028 8488     		ldrh	r4, [r0, #4]
 332 002a 0288     		ldrh	r2, [r0]
 333 002c 9442     		cmp	r4, r2
 334 002e 0BD2     		bcs	.L16
 335              		.loc 1 124 3 discriminator 1 view .LVU78
 336 0030 4388     		ldrh	r3, [r0, #2]
 337 0032 1C44     		add	r4, r4, r3
 338 0034 94FBF2F3 		sdiv	r3, r4, r2
ARM GAS  C:\Users\Travis\AppData\Local\Temp\cc9OlBmU.s 			page 9


 339 0038 02FB1343 		mls	r3, r2, r3, r4
 340              	.LVL22:
 341              		.loc 1 124 3 discriminator 1 view .LVU79
 342 003c 8268     		ldr	r2, [r0, #8]
 343 003e 9BB2     		uxth	r3, r3
 344              		.loc 1 124 3 is_stmt 0 discriminator 1 view .LVU80
 345 0040 D554     		strb	r5, [r2, r3]
 346              		.loc 1 124 3 is_stmt 1 discriminator 1 view .LVU81
 347 0042 8388     		ldrh	r3, [r0, #4]
 348              	.LVL23:
 349              		.loc 1 124 3 is_stmt 0 discriminator 1 view .LVU82
 350 0044 0133     		adds	r3, r3, #1
 351 0046 8380     		strh	r3, [r0, #4]	@ movhi
 352              	.L16:
 353              		.loc 1 124 3 is_stmt 1 discriminator 3 view .LVU83
 125:C:/MinGW/msys/1.0/esos32/src\esos_cb.c ****   u8_temp = (uint8_t) (u32_x>>16);
 354              		.loc 1 125 3 discriminator 3 view .LVU84
 355              		.loc 1 125 11 is_stmt 0 discriminator 3 view .LVU85
 356 0048 C1F30745 		ubfx	r5, r1, #16, #8
 357              	.LVL24:
 126:C:/MinGW/msys/1.0/esos32/src\esos_cb.c ****   __WRITE_CB_UINT8(pst_CBuffer,u8_temp,u16_end);
 358              		.loc 1 126 3 is_stmt 1 discriminator 3 view .LVU86
 359              		.loc 1 126 3 discriminator 3 view .LVU87
 360 004c 8488     		ldrh	r4, [r0, #4]
 361 004e 0288     		ldrh	r2, [r0]
 362 0050 9442     		cmp	r4, r2
 363 0052 0BD2     		bcs	.L17
 364              		.loc 1 126 3 discriminator 1 view .LVU88
 365 0054 4388     		ldrh	r3, [r0, #2]
 366 0056 1C44     		add	r4, r4, r3
 367 0058 94FBF2F3 		sdiv	r3, r4, r2
 368 005c 02FB1343 		mls	r3, r2, r3, r4
 369              	.LVL25:
 370              		.loc 1 126 3 discriminator 1 view .LVU89
 371 0060 8268     		ldr	r2, [r0, #8]
 372 0062 9BB2     		uxth	r3, r3
 373              		.loc 1 126 3 is_stmt 0 discriminator 1 view .LVU90
 374 0064 D554     		strb	r5, [r2, r3]
 375              		.loc 1 126 3 is_stmt 1 discriminator 1 view .LVU91
 376 0066 8388     		ldrh	r3, [r0, #4]
 377              	.LVL26:
 378              		.loc 1 126 3 is_stmt 0 discriminator 1 view .LVU92
 379 0068 0133     		adds	r3, r3, #1
 380 006a 8380     		strh	r3, [r0, #4]	@ movhi
 381              	.L17:
 382              		.loc 1 126 3 is_stmt 1 discriminator 3 view .LVU93
 127:C:/MinGW/msys/1.0/esos32/src\esos_cb.c ****   u8_temp = (uint8_t) (u32_x>>24);
 383              		.loc 1 127 3 discriminator 3 view .LVU94
 384              		.loc 1 127 11 is_stmt 0 discriminator 3 view .LVU95
 385 006c 090E     		lsrs	r1, r1, #24
 386              	.LVL27:
 128:C:/MinGW/msys/1.0/esos32/src\esos_cb.c ****   __WRITE_CB_UINT8(pst_CBuffer,u8_temp,u16_end);
 387              		.loc 1 128 3 is_stmt 1 discriminator 3 view .LVU96
 388              		.loc 1 128 3 discriminator 3 view .LVU97
 389 006e 8488     		ldrh	r4, [r0, #4]
 390 0070 0288     		ldrh	r2, [r0]
 391 0072 9442     		cmp	r4, r2
ARM GAS  C:\Users\Travis\AppData\Local\Temp\cc9OlBmU.s 			page 10


 392 0074 0BD2     		bcs	.L14
 393              		.loc 1 128 3 discriminator 1 view .LVU98
 394 0076 4388     		ldrh	r3, [r0, #2]
 395 0078 1C44     		add	r4, r4, r3
 396 007a 94FBF2F3 		sdiv	r3, r4, r2
 397 007e 02FB1343 		mls	r3, r2, r3, r4
 398              	.LVL28:
 399              		.loc 1 128 3 discriminator 1 view .LVU99
 400 0082 8268     		ldr	r2, [r0, #8]
 401 0084 9BB2     		uxth	r3, r3
 402              		.loc 1 128 3 is_stmt 0 discriminator 1 view .LVU100
 403 0086 D154     		strb	r1, [r2, r3]
 404              		.loc 1 128 3 is_stmt 1 discriminator 1 view .LVU101
 405 0088 8388     		ldrh	r3, [r0, #4]
 406              	.LVL29:
 407              		.loc 1 128 3 is_stmt 0 discriminator 1 view .LVU102
 408 008a 0133     		adds	r3, r3, #1
 409 008c 8380     		strh	r3, [r0, #4]	@ movhi
 410              		.loc 1 128 3 is_stmt 1 discriminator 1 view .LVU103
 411              	.L14:
 129:C:/MinGW/msys/1.0/esos32/src\esos_cb.c **** } // end __esos_CB_WriteUINT32()
 412              		.loc 1 129 1 is_stmt 0 view .LVU104
 413 008e 30BC     		pop	{r4, r5}
 414              	.LCFI8:
 415              		.cfi_restore 5
 416              		.cfi_restore 4
 417              		.cfi_def_cfa_offset 0
 418 0090 7047     		bx	lr
 419              		.cfi_endproc
 420              	.LFE4:
 422              		.section	.text.__esos_CB_WriteUINT8Buffer,"ax",%progbits
 423              		.align	1
 424              		.global	__esos_CB_WriteUINT8Buffer
 425              		.syntax unified
 426              		.thumb
 427              		.thumb_func
 428              		.fpu fpv4-sp-d16
 430              	__esos_CB_WriteUINT8Buffer:
 431              	.LVL30:
 432              	.LFB5:
 130:C:/MinGW/msys/1.0/esos32/src\esos_cb.c **** 
 131:C:/MinGW/msys/1.0/esos32/src\esos_cb.c **** void __esos_CB_WriteUINT8Buffer(CBUFFER* pst_CBuffer, uint8_t* pu8_x, uint16_t u16_size ) {
 433              		.loc 1 131 91 is_stmt 1 view -0
 434              		.cfi_startproc
 435              		@ args = 0, pretend = 0, frame = 0
 436              		@ frame_needed = 0, uses_anonymous_args = 0
 437              		@ link register save eliminated.
 132:C:/MinGW/msys/1.0/esos32/src\esos_cb.c ****   uint16_t    u16_i, u16_end;
 438              		.loc 1 132 3 view .LVU106
 133:C:/MinGW/msys/1.0/esos32/src\esos_cb.c **** 
 134:C:/MinGW/msys/1.0/esos32/src\esos_cb.c ****   for (u16_i=0; u16_i<u16_size; u16_i++) {
 439              		.loc 1 134 3 view .LVU107
 440              		.loc 1 134 13 is_stmt 0 view .LVU108
 441 0000 0023     		movs	r3, #0
 442              	.LVL31:
 443              		.loc 1 134 17 is_stmt 1 view .LVU109
 444              		.loc 1 134 3 is_stmt 0 view .LVU110
ARM GAS  C:\Users\Travis\AppData\Local\Temp\cc9OlBmU.s 			page 11


 445 0002 9342     		cmp	r3, r2
 446 0004 19D2     		bcs	.L27
 131:C:/MinGW/msys/1.0/esos32/src\esos_cb.c ****   uint16_t    u16_i, u16_end;
 447              		.loc 1 131 91 view .LVU111
 448 0006 70B4     		push	{r4, r5, r6}
 449              	.LCFI9:
 450              		.cfi_def_cfa_offset 12
 451              		.cfi_offset 4, -12
 452              		.cfi_offset 5, -8
 453              		.cfi_offset 6, -4
 454 0008 03E0     		b	.L23
 455              	.L22:
 135:C:/MinGW/msys/1.0/esos32/src\esos_cb.c ****     __WRITE_CB_UINT8(pst_CBuffer, pu8_x[u16_i], u16_end);
 456              		.loc 1 135 5 is_stmt 1 discriminator 3 view .LVU112
 134:C:/MinGW/msys/1.0/esos32/src\esos_cb.c ****     __WRITE_CB_UINT8(pst_CBuffer, pu8_x[u16_i], u16_end);
 457              		.loc 1 134 33 discriminator 3 view .LVU113
 134:C:/MinGW/msys/1.0/esos32/src\esos_cb.c ****     __WRITE_CB_UINT8(pst_CBuffer, pu8_x[u16_i], u16_end);
 458              		.loc 1 134 38 is_stmt 0 discriminator 3 view .LVU114
 459 000a 0133     		adds	r3, r3, #1
 460              	.LVL32:
 134:C:/MinGW/msys/1.0/esos32/src\esos_cb.c ****     __WRITE_CB_UINT8(pst_CBuffer, pu8_x[u16_i], u16_end);
 461              		.loc 1 134 38 discriminator 3 view .LVU115
 462 000c 9BB2     		uxth	r3, r3
 463              	.LVL33:
 134:C:/MinGW/msys/1.0/esos32/src\esos_cb.c ****     __WRITE_CB_UINT8(pst_CBuffer, pu8_x[u16_i], u16_end);
 464              		.loc 1 134 17 is_stmt 1 discriminator 3 view .LVU116
 134:C:/MinGW/msys/1.0/esos32/src\esos_cb.c ****     __WRITE_CB_UINT8(pst_CBuffer, pu8_x[u16_i], u16_end);
 465              		.loc 1 134 3 is_stmt 0 discriminator 3 view .LVU117
 466 000e 9342     		cmp	r3, r2
 467 0010 11D2     		bcs	.L28
 468              	.L23:
 469              		.loc 1 135 5 is_stmt 1 view .LVU118
 470              		.loc 1 135 5 view .LVU119
 471 0012 8688     		ldrh	r6, [r0, #4]
 472 0014 0588     		ldrh	r5, [r0]
 473 0016 AE42     		cmp	r6, r5
 474 0018 F7D2     		bcs	.L22
 475              		.loc 1 135 5 discriminator 1 view .LVU120
 476 001a 4488     		ldrh	r4, [r0, #2]
 477 001c 2644     		add	r6, r6, r4
 478 001e 96FBF5F4 		sdiv	r4, r6, r5
 479 0022 05FB1464 		mls	r4, r5, r4, r6
 480              	.LVL34:
 481              		.loc 1 135 5 discriminator 1 view .LVU121
 482 0026 8568     		ldr	r5, [r0, #8]
 483 0028 A4B2     		uxth	r4, r4
 484              		.loc 1 135 5 is_stmt 0 discriminator 1 view .LVU122
 485 002a CE5C     		ldrb	r6, [r1, r3]	@ zero_extendqisi2
 486 002c 2E55     		strb	r6, [r5, r4]
 487              		.loc 1 135 5 is_stmt 1 discriminator 1 view .LVU123
 488 002e 8488     		ldrh	r4, [r0, #4]
 489              	.LVL35:
 490              		.loc 1 135 5 is_stmt 0 discriminator 1 view .LVU124
 491 0030 0134     		adds	r4, r4, #1
 492 0032 8480     		strh	r4, [r0, #4]	@ movhi
 493 0034 E9E7     		b	.L22
 494              	.L28:
ARM GAS  C:\Users\Travis\AppData\Local\Temp\cc9OlBmU.s 			page 12


 136:C:/MinGW/msys/1.0/esos32/src\esos_cb.c ****   }
 137:C:/MinGW/msys/1.0/esos32/src\esos_cb.c **** } // end __esos_CB_WriteUINT8Buffer()
 495              		.loc 1 137 1 view .LVU125
 496 0036 70BC     		pop	{r4, r5, r6}
 497              	.LCFI10:
 498              		.cfi_restore 6
 499              		.cfi_restore 5
 500              		.cfi_restore 4
 501              		.cfi_def_cfa_offset 0
 502 0038 7047     		bx	lr
 503              	.L27:
 504              		.loc 1 137 1 view .LVU126
 505 003a 7047     		bx	lr
 506              		.cfi_endproc
 507              	.LFE5:
 509              		.section	.text.__esos_CB_ReadUINT8,"ax",%progbits
 510              		.align	1
 511              		.global	__esos_CB_ReadUINT8
 512              		.syntax unified
 513              		.thumb
 514              		.thumb_func
 515              		.fpu fpv4-sp-d16
 517              	__esos_CB_ReadUINT8:
 518              	.LVL36:
 519              	.LFB6:
 138:C:/MinGW/msys/1.0/esos32/src\esos_cb.c **** 
 139:C:/MinGW/msys/1.0/esos32/src\esos_cb.c **** /***************************************************************
 140:C:/MinGW/msys/1.0/esos32/src\esos_cb.c **** **** READERs
 141:C:/MinGW/msys/1.0/esos32/src\esos_cb.c **** ***************************************************************/
 142:C:/MinGW/msys/1.0/esos32/src\esos_cb.c **** uint8_t __esos_CB_ReadUINT8(CBUFFER* pst_CBuffer ) {
 520              		.loc 1 142 52 is_stmt 1 view -0
 521              		.cfi_startproc
 522              		@ args = 0, pretend = 0, frame = 0
 523              		@ frame_needed = 0, uses_anonymous_args = 0
 524              		@ link register save eliminated.
 525              		.loc 1 142 52 is_stmt 0 view .LVU128
 526 0000 10B4     		push	{r4}
 527              	.LCFI11:
 528              		.cfi_def_cfa_offset 4
 529              		.cfi_offset 4, -4
 530 0002 0346     		mov	r3, r0
 143:C:/MinGW/msys/1.0/esos32/src\esos_cb.c ****   uint8_t     u8_retval;
 531              		.loc 1 143 3 is_stmt 1 view .LVU129
 144:C:/MinGW/msys/1.0/esos32/src\esos_cb.c **** 
 145:C:/MinGW/msys/1.0/esos32/src\esos_cb.c ****   __READ_CB_UINT8(pst_CBuffer, u8_retval);
 532              		.loc 1 145 3 view .LVU130
 533              		.loc 1 145 3 view .LVU131
 534 0004 8168     		ldr	r1, [r0, #8]
 535 0006 4288     		ldrh	r2, [r0, #2]
 536 0008 885C     		ldrb	r0, [r1, r2]	@ zero_extendqisi2
 537              	.LVL37:
 538              		.loc 1 145 3 view .LVU132
 539 000a 0132     		adds	r2, r2, #1
 540 000c 1C88     		ldrh	r4, [r3]
 541 000e 92FBF4F1 		sdiv	r1, r2, r4
 542 0012 04FB1122 		mls	r2, r4, r1, r2
 543 0016 5A80     		strh	r2, [r3, #2]	@ movhi
ARM GAS  C:\Users\Travis\AppData\Local\Temp\cc9OlBmU.s 			page 13


 544              		.loc 1 145 3 view .LVU133
 545 0018 9A88     		ldrh	r2, [r3, #4]
 546 001a 013A     		subs	r2, r2, #1
 547 001c 9A80     		strh	r2, [r3, #4]	@ movhi
 548              		.loc 1 145 3 view .LVU134
 146:C:/MinGW/msys/1.0/esos32/src\esos_cb.c ****   return(u8_retval);
 549              		.loc 1 146 3 view .LVU135
 147:C:/MinGW/msys/1.0/esos32/src\esos_cb.c **** } // __esos_CB_ReadUINT8()
 550              		.loc 1 147 1 is_stmt 0 view .LVU136
 551 001e 5DF8044B 		ldr	r4, [sp], #4
 552              	.LCFI12:
 553              		.cfi_restore 4
 554              		.cfi_def_cfa_offset 0
 555 0022 7047     		bx	lr
 556              		.cfi_endproc
 557              	.LFE6:
 559              		.section	.text.__esos_CB_ReadUINT16,"ax",%progbits
 560              		.align	1
 561              		.global	__esos_CB_ReadUINT16
 562              		.syntax unified
 563              		.thumb
 564              		.thumb_func
 565              		.fpu fpv4-sp-d16
 567              	__esos_CB_ReadUINT16:
 568              	.LVL38:
 569              	.LFB7:
 148:C:/MinGW/msys/1.0/esos32/src\esos_cb.c **** 
 149:C:/MinGW/msys/1.0/esos32/src\esos_cb.c **** uint16_t __esos_CB_ReadUINT16(CBUFFER* pst_CBuffer ) {
 570              		.loc 1 149 54 is_stmt 1 view -0
 571              		.cfi_startproc
 572              		@ args = 0, pretend = 0, frame = 0
 573              		@ frame_needed = 0, uses_anonymous_args = 0
 574              		@ link register save eliminated.
 575              		.loc 1 149 54 is_stmt 0 view .LVU138
 576 0000 70B4     		push	{r4, r5, r6}
 577              	.LCFI13:
 578              		.cfi_def_cfa_offset 12
 579              		.cfi_offset 4, -12
 580              		.cfi_offset 5, -8
 581              		.cfi_offset 6, -4
 150:C:/MinGW/msys/1.0/esos32/src\esos_cb.c ****   uint8_t     u8_temp;
 582              		.loc 1 150 3 is_stmt 1 view .LVU139
 151:C:/MinGW/msys/1.0/esos32/src\esos_cb.c ****   uint16_t    u16_retval;
 583              		.loc 1 151 3 view .LVU140
 152:C:/MinGW/msys/1.0/esos32/src\esos_cb.c **** 
 153:C:/MinGW/msys/1.0/esos32/src\esos_cb.c ****   __READ_CB_UINT8(pst_CBuffer, u8_temp);
 584              		.loc 1 153 3 view .LVU141
 585              		.loc 1 153 3 view .LVU142
 586 0002 8568     		ldr	r5, [r0, #8]
 587 0004 4388     		ldrh	r3, [r0, #2]
 588 0006 EC5C     		ldrb	r4, [r5, r3]	@ zero_extendqisi2
 589              	.LVL39:
 590              		.loc 1 153 3 view .LVU143
 591 0008 5A1C     		adds	r2, r3, #1
 592 000a 0188     		ldrh	r1, [r0]
 593 000c 92FBF1F3 		sdiv	r3, r2, r1
 594 0010 01FB1323 		mls	r3, r1, r3, r2
ARM GAS  C:\Users\Travis\AppData\Local\Temp\cc9OlBmU.s 			page 14


 595 0014 9BB2     		uxth	r3, r3
 596 0016 4380     		strh	r3, [r0, #2]	@ movhi
 597              		.loc 1 153 3 view .LVU144
 598 0018 8288     		ldrh	r2, [r0, #4]
 599 001a 013A     		subs	r2, r2, #1
 600 001c 92B2     		uxth	r2, r2
 601 001e 8280     		strh	r2, [r0, #4]	@ movhi
 602              		.loc 1 153 3 view .LVU145
 154:C:/MinGW/msys/1.0/esos32/src\esos_cb.c ****   u16_retval = (uint16_t) u8_temp;
 603              		.loc 1 154 3 view .LVU146
 604              	.LVL40:
 155:C:/MinGW/msys/1.0/esos32/src\esos_cb.c ****   __READ_CB_UINT8(pst_CBuffer, u8_temp);
 605              		.loc 1 155 3 view .LVU147
 606              		.loc 1 155 3 view .LVU148
 607 0020 EE5C     		ldrb	r6, [r5, r3]	@ zero_extendqisi2
 608              	.LVL41:
 609              		.loc 1 155 3 view .LVU149
 610 0022 0133     		adds	r3, r3, #1
 611 0024 93FBF1F5 		sdiv	r5, r3, r1
 612 0028 01FB1533 		mls	r3, r1, r5, r3
 613 002c 4380     		strh	r3, [r0, #2]	@ movhi
 614              		.loc 1 155 3 view .LVU150
 615 002e 013A     		subs	r2, r2, #1
 616 0030 8280     		strh	r2, [r0, #4]	@ movhi
 617              		.loc 1 155 3 view .LVU151
 156:C:/MinGW/msys/1.0/esos32/src\esos_cb.c ****   u16_retval += ((uint16_t) u8_temp)<<8;
 618              		.loc 1 156 3 view .LVU152
 619              		.loc 1 156 14 is_stmt 0 view .LVU153
 620 0032 04EB0620 		add	r0, r4, r6, lsl #8
 621              	.LVL42:
 157:C:/MinGW/msys/1.0/esos32/src\esos_cb.c ****   return (u16_retval);
 622              		.loc 1 157 3 is_stmt 1 view .LVU154
 158:C:/MinGW/msys/1.0/esos32/src\esos_cb.c **** } // __esos_CB_ReadUINT16()
 623              		.loc 1 158 1 is_stmt 0 view .LVU155
 624 0036 80B2     		uxth	r0, r0
 625              		.loc 1 158 1 view .LVU156
 626 0038 70BC     		pop	{r4, r5, r6}
 627              	.LCFI14:
 628              		.cfi_restore 6
 629              		.cfi_restore 5
 630              		.cfi_restore 4
 631              		.cfi_def_cfa_offset 0
 632              	.LVL43:
 633              		.loc 1 158 1 view .LVU157
 634 003a 7047     		bx	lr
 635              		.cfi_endproc
 636              	.LFE7:
 638              		.section	.text.__esos_CB_ReadUINT32,"ax",%progbits
 639              		.align	1
 640              		.global	__esos_CB_ReadUINT32
 641              		.syntax unified
 642              		.thumb
 643              		.thumb_func
 644              		.fpu fpv4-sp-d16
 646              	__esos_CB_ReadUINT32:
 647              	.LVL44:
 648              	.LFB8:
ARM GAS  C:\Users\Travis\AppData\Local\Temp\cc9OlBmU.s 			page 15


 159:C:/MinGW/msys/1.0/esos32/src\esos_cb.c **** 
 160:C:/MinGW/msys/1.0/esos32/src\esos_cb.c **** uint32_t __esos_CB_ReadUINT32(CBUFFER* pst_CBuffer ) {
 649              		.loc 1 160 54 is_stmt 1 view -0
 650              		.cfi_startproc
 651              		@ args = 0, pretend = 0, frame = 0
 652              		@ frame_needed = 0, uses_anonymous_args = 0
 653              		@ link register save eliminated.
 654              		.loc 1 160 54 is_stmt 0 view .LVU159
 655 0000 F0B4     		push	{r4, r5, r6, r7}
 656              	.LCFI15:
 657              		.cfi_def_cfa_offset 16
 658              		.cfi_offset 4, -16
 659              		.cfi_offset 5, -12
 660              		.cfi_offset 6, -8
 661              		.cfi_offset 7, -4
 161:C:/MinGW/msys/1.0/esos32/src\esos_cb.c ****   uint8_t     u8_temp;
 662              		.loc 1 161 3 is_stmt 1 view .LVU160
 162:C:/MinGW/msys/1.0/esos32/src\esos_cb.c ****   uint32_t    u32_retval;
 663              		.loc 1 162 3 view .LVU161
 163:C:/MinGW/msys/1.0/esos32/src\esos_cb.c **** 
 164:C:/MinGW/msys/1.0/esos32/src\esos_cb.c ****   __READ_CB_UINT8(pst_CBuffer, u8_temp);
 664              		.loc 1 164 3 view .LVU162
 665              		.loc 1 164 3 view .LVU163
 666 0002 8468     		ldr	r4, [r0, #8]
 667 0004 4288     		ldrh	r2, [r0, #2]
 668 0006 A65C     		ldrb	r6, [r4, r2]	@ zero_extendqisi2
 669              	.LVL45:
 670              		.loc 1 164 3 view .LVU164
 671 0008 531C     		adds	r3, r2, #1
 672 000a 0188     		ldrh	r1, [r0]
 673 000c 93FBF1F2 		sdiv	r2, r3, r1
 674 0010 01FB1232 		mls	r2, r1, r2, r3
 675 0014 92B2     		uxth	r2, r2
 676 0016 4280     		strh	r2, [r0, #2]	@ movhi
 677              		.loc 1 164 3 view .LVU165
 678 0018 8388     		ldrh	r3, [r0, #4]
 679 001a 013B     		subs	r3, r3, #1
 680 001c 9BB2     		uxth	r3, r3
 681 001e 8380     		strh	r3, [r0, #4]	@ movhi
 682              		.loc 1 164 3 view .LVU166
 165:C:/MinGW/msys/1.0/esos32/src\esos_cb.c ****   u32_retval = (uint32_t) u8_temp;
 683              		.loc 1 165 3 view .LVU167
 684              	.LVL46:
 166:C:/MinGW/msys/1.0/esos32/src\esos_cb.c ****   __READ_CB_UINT8(pst_CBuffer, u8_temp);
 685              		.loc 1 166 3 view .LVU168
 686              		.loc 1 166 3 view .LVU169
 687 0020 A75C     		ldrb	r7, [r4, r2]	@ zero_extendqisi2
 688              	.LVL47:
 689              		.loc 1 166 3 view .LVU170
 690 0022 551C     		adds	r5, r2, #1
 691 0024 95FBF1F2 		sdiv	r2, r5, r1
 692 0028 01FB1252 		mls	r2, r1, r2, r5
 693 002c 92B2     		uxth	r2, r2
 694 002e 4280     		strh	r2, [r0, #2]	@ movhi
 695              		.loc 1 166 3 view .LVU171
 696 0030 013B     		subs	r3, r3, #1
 697 0032 9BB2     		uxth	r3, r3
ARM GAS  C:\Users\Travis\AppData\Local\Temp\cc9OlBmU.s 			page 16


 698 0034 8380     		strh	r3, [r0, #4]	@ movhi
 699              		.loc 1 166 3 view .LVU172
 167:C:/MinGW/msys/1.0/esos32/src\esos_cb.c ****   u32_retval += (((uint32_t) u8_temp)<<8);
 700              		.loc 1 167 3 view .LVU173
 701              		.loc 1 167 14 is_stmt 0 view .LVU174
 702 0036 06EB0726 		add	r6, r6, r7, lsl #8
 703              	.LVL48:
 168:C:/MinGW/msys/1.0/esos32/src\esos_cb.c ****   __READ_CB_UINT8(pst_CBuffer, u8_temp);
 704              		.loc 1 168 3 is_stmt 1 view .LVU175
 705              		.loc 1 168 3 view .LVU176
 706 003a A75C     		ldrb	r7, [r4, r2]	@ zero_extendqisi2
 707              	.LVL49:
 708              		.loc 1 168 3 view .LVU177
 709 003c 551C     		adds	r5, r2, #1
 710 003e 95FBF1F2 		sdiv	r2, r5, r1
 711 0042 01FB1252 		mls	r2, r1, r2, r5
 712 0046 92B2     		uxth	r2, r2
 713 0048 4280     		strh	r2, [r0, #2]	@ movhi
 714              		.loc 1 168 3 view .LVU178
 715 004a 013B     		subs	r3, r3, #1
 716 004c 9BB2     		uxth	r3, r3
 717 004e 8380     		strh	r3, [r0, #4]	@ movhi
 718              		.loc 1 168 3 view .LVU179
 169:C:/MinGW/msys/1.0/esos32/src\esos_cb.c ****   u32_retval += (((uint32_t) u8_temp)<<16);
 719              		.loc 1 169 3 view .LVU180
 720              		.loc 1 169 14 is_stmt 0 view .LVU181
 721 0050 06EB0746 		add	r6, r6, r7, lsl #16
 722              	.LVL50:
 170:C:/MinGW/msys/1.0/esos32/src\esos_cb.c ****   __READ_CB_UINT8(pst_CBuffer, u8_temp);
 723              		.loc 1 170 3 is_stmt 1 view .LVU182
 724              		.loc 1 170 3 view .LVU183
 725 0054 A55C     		ldrb	r5, [r4, r2]	@ zero_extendqisi2
 726              	.LVL51:
 727              		.loc 1 170 3 view .LVU184
 728 0056 0132     		adds	r2, r2, #1
 729 0058 92FBF1F4 		sdiv	r4, r2, r1
 730 005c 01FB1422 		mls	r2, r1, r4, r2
 731 0060 4280     		strh	r2, [r0, #2]	@ movhi
 732              		.loc 1 170 3 view .LVU185
 733 0062 013B     		subs	r3, r3, #1
 734 0064 8380     		strh	r3, [r0, #4]	@ movhi
 735              		.loc 1 170 3 view .LVU186
 171:C:/MinGW/msys/1.0/esos32/src\esos_cb.c ****   u32_retval += (((uint32_t) u8_temp)<<24);
 736              		.loc 1 171 3 view .LVU187
 737              	.LVL52:
 172:C:/MinGW/msys/1.0/esos32/src\esos_cb.c ****   return (u32_retval);
 738              		.loc 1 172 3 view .LVU188
 173:C:/MinGW/msys/1.0/esos32/src\esos_cb.c **** } // __esos_CB_ReadUINT32()
 739              		.loc 1 173 1 is_stmt 0 view .LVU189
 740 0066 06EB0560 		add	r0, r6, r5, lsl #24
 741              	.LVL53:
 742              		.loc 1 173 1 view .LVU190
 743 006a F0BC     		pop	{r4, r5, r6, r7}
 744              	.LCFI16:
 745              		.cfi_restore 7
 746              		.cfi_restore 6
 747              		.cfi_restore 5
ARM GAS  C:\Users\Travis\AppData\Local\Temp\cc9OlBmU.s 			page 17


 748              		.cfi_restore 4
 749              		.cfi_def_cfa_offset 0
 750              	.LVL54:
 751              		.loc 1 173 1 view .LVU191
 752 006c 7047     		bx	lr
 753              		.cfi_endproc
 754              	.LFE8:
 756              		.section	.text.__esos_CB_ReadUINT8Buffer,"ax",%progbits
 757              		.align	1
 758              		.global	__esos_CB_ReadUINT8Buffer
 759              		.syntax unified
 760              		.thumb
 761              		.thumb_func
 762              		.fpu fpv4-sp-d16
 764              	__esos_CB_ReadUINT8Buffer:
 765              	.LVL55:
 766              	.LFB9:
 174:C:/MinGW/msys/1.0/esos32/src\esos_cb.c **** 
 175:C:/MinGW/msys/1.0/esos32/src\esos_cb.c **** 
 176:C:/MinGW/msys/1.0/esos32/src\esos_cb.c **** void __esos_CB_ReadUINT8Buffer(CBUFFER* pst_CBuffer, uint8_t* pu8_x, uint16_t u16_size ) {
 767              		.loc 1 176 90 is_stmt 1 view -0
 768              		.cfi_startproc
 769              		@ args = 0, pretend = 0, frame = 0
 770              		@ frame_needed = 0, uses_anonymous_args = 0
 771              		@ link register save eliminated.
 177:C:/MinGW/msys/1.0/esos32/src\esos_cb.c ****   uint16_t    u16_i;
 772              		.loc 1 177 3 view .LVU193
 178:C:/MinGW/msys/1.0/esos32/src\esos_cb.c **** 
 179:C:/MinGW/msys/1.0/esos32/src\esos_cb.c ****   for (u16_i=0; u16_i<u16_size; u16_i++) {
 773              		.loc 1 179 3 view .LVU194
 774              		.loc 1 179 13 is_stmt 0 view .LVU195
 775 0000 0023     		movs	r3, #0
 776              	.LVL56:
 777              		.loc 1 179 17 is_stmt 1 view .LVU196
 778              		.loc 1 179 3 is_stmt 0 view .LVU197
 779 0002 9342     		cmp	r3, r2
 780 0004 15D2     		bcs	.L41
 176:C:/MinGW/msys/1.0/esos32/src\esos_cb.c ****   uint16_t    u16_i;
 781              		.loc 1 176 90 view .LVU198
 782 0006 70B4     		push	{r4, r5, r6}
 783              	.LCFI17:
 784              		.cfi_def_cfa_offset 12
 785              		.cfi_offset 4, -12
 786              		.cfi_offset 5, -8
 787              		.cfi_offset 6, -4
 788              	.L37:
 180:C:/MinGW/msys/1.0/esos32/src\esos_cb.c ****     __READ_CB_UINT8(pst_CBuffer, pu8_x[u16_i]);
 789              		.loc 1 180 5 is_stmt 1 discriminator 3 view .LVU199
 790              		.loc 1 180 5 discriminator 3 view .LVU200
 791 0008 8568     		ldr	r5, [r0, #8]
 792 000a 4488     		ldrh	r4, [r0, #2]
 793 000c 2C5D     		ldrb	r4, [r5, r4]	@ zero_extendqisi2
 794 000e CC54     		strb	r4, [r1, r3]
 795              		.loc 1 180 5 discriminator 3 view .LVU201
 796 0010 4488     		ldrh	r4, [r0, #2]
 797 0012 0134     		adds	r4, r4, #1
 798 0014 0688     		ldrh	r6, [r0]
ARM GAS  C:\Users\Travis\AppData\Local\Temp\cc9OlBmU.s 			page 18


 799 0016 94FBF6F5 		sdiv	r5, r4, r6
 800 001a 06FB1544 		mls	r4, r6, r5, r4
 801 001e 4480     		strh	r4, [r0, #2]	@ movhi
 802              		.loc 1 180 5 discriminator 3 view .LVU202
 803 0020 8488     		ldrh	r4, [r0, #4]
 804 0022 013C     		subs	r4, r4, #1
 805 0024 8480     		strh	r4, [r0, #4]	@ movhi
 806              		.loc 1 180 5 discriminator 3 view .LVU203
 179:C:/MinGW/msys/1.0/esos32/src\esos_cb.c ****     __READ_CB_UINT8(pst_CBuffer, pu8_x[u16_i]);
 807              		.loc 1 179 33 discriminator 3 view .LVU204
 179:C:/MinGW/msys/1.0/esos32/src\esos_cb.c ****     __READ_CB_UINT8(pst_CBuffer, pu8_x[u16_i]);
 808              		.loc 1 179 38 is_stmt 0 discriminator 3 view .LVU205
 809 0026 0133     		adds	r3, r3, #1
 810              	.LVL57:
 179:C:/MinGW/msys/1.0/esos32/src\esos_cb.c ****     __READ_CB_UINT8(pst_CBuffer, pu8_x[u16_i]);
 811              		.loc 1 179 38 discriminator 3 view .LVU206
 812 0028 9BB2     		uxth	r3, r3
 813              	.LVL58:
 179:C:/MinGW/msys/1.0/esos32/src\esos_cb.c ****     __READ_CB_UINT8(pst_CBuffer, pu8_x[u16_i]);
 814              		.loc 1 179 17 is_stmt 1 discriminator 3 view .LVU207
 179:C:/MinGW/msys/1.0/esos32/src\esos_cb.c ****     __READ_CB_UINT8(pst_CBuffer, pu8_x[u16_i]);
 815              		.loc 1 179 3 is_stmt 0 discriminator 3 view .LVU208
 816 002a 9342     		cmp	r3, r2
 817 002c ECD3     		bcc	.L37
 181:C:/MinGW/msys/1.0/esos32/src\esos_cb.c ****   }
 182:C:/MinGW/msys/1.0/esos32/src\esos_cb.c **** } // end __esos_CB_ReadUINT8Buffer()
 818              		.loc 1 182 1 view .LVU209
 819 002e 70BC     		pop	{r4, r5, r6}
 820              	.LCFI18:
 821              		.cfi_restore 6
 822              		.cfi_restore 5
 823              		.cfi_restore 4
 824              		.cfi_def_cfa_offset 0
 825 0030 7047     		bx	lr
 826              	.L41:
 827              		.loc 1 182 1 view .LVU210
 828 0032 7047     		bx	lr
 829              		.cfi_endproc
 830              	.LFE9:
 832              		.text
 833              	.Letext0:
 834              		.file 2 "c:\\program files (x86)\\gnu tools arm embedded\\9 2019-q4-major\\arm-none-eabi\\include\
 835              		.file 3 "c:\\program files (x86)\\gnu tools arm embedded\\9 2019-q4-major\\arm-none-eabi\\include\
 836              		.file 4 "C:/MinGW/msys/1.0/esos32/include/lc-switch.h"
 837              		.file 5 "C:/MinGW/msys/1.0/esos32/include/esos_cb.h"
 838              		.file 6 "C:/MinGW/msys/1.0/esos32/include/esos_mail.h"
 839              		.file 7 "C:/MinGW/msys/1.0/esos32/include/esos_task.h"
 840              		.file 8 "C:/MinGW/msys/1.0/esos32/include/esos_utils.h"
 841              		.file 9 "C:/MinGW/msys/1.0/esos32/include/esos_comm.h"
 842              		.file 10 "C:/MinGW/msys/1.0/esos32/include/esos.h"
ARM GAS  C:\Users\Travis\AppData\Local\Temp\cc9OlBmU.s 			page 19

