ARM GAS  C:\Users\Travis\AppData\Local\Temp\cci1JC9h.s 			page 1


   1              		.cpu cortex-m4
   2              		.eabi_attribute 27, 1
   3              		.eabi_attribute 28, 1
   4              		.eabi_attribute 20, 1
   5              		.eabi_attribute 21, 1
   6              		.eabi_attribute 23, 3
   7              		.eabi_attribute 24, 1
   8              		.eabi_attribute 25, 1
   9              		.eabi_attribute 26, 1
  10              		.eabi_attribute 30, 1
  11              		.eabi_attribute 34, 1
  12              		.eabi_attribute 18, 4
  13              		.file	"esos_comm.c"
  14              		.text
  15              	.Ltext0:
  16              		.cfi_sections	.debug_frame
  17              		.section	.text.__esos_InitCommSystem,"ax",%progbits
  18              		.align	1
  19              		.global	__esos_InitCommSystem
  20              		.arch armv7e-m
  21              		.syntax unified
  22              		.thumb
  23              		.thumb_func
  24              		.fpu fpv4-sp-d16
  26              	__esos_InitCommSystem:
  27              	.LFB0:
  28              		.file 1 "C:/MinGW/msys/1.0/esos32/src/esos_comm.c"
   1:C:/MinGW/msys/1.0/esos32/src\esos_comm.c **** /*
   2:C:/MinGW/msys/1.0/esos32/src\esos_comm.c ****  * "Copyright (c) 2019 J. W. Bruce ("AUTHOR(S)")"
   3:C:/MinGW/msys/1.0/esos32/src\esos_comm.c ****  * All rights reserved.
   4:C:/MinGW/msys/1.0/esos32/src\esos_comm.c ****  * (J. W. Bruce, jwbruce_AT_tntech.edu, Tennessee Tech University)
   5:C:/MinGW/msys/1.0/esos32/src\esos_comm.c ****  *
   6:C:/MinGW/msys/1.0/esos32/src\esos_comm.c ****  * Permission to use, copy, modify, and distribute this software and its
   7:C:/MinGW/msys/1.0/esos32/src\esos_comm.c ****  * documentation for any purpose, without fee, and without written agreement is
   8:C:/MinGW/msys/1.0/esos32/src\esos_comm.c ****  * hereby granted, provided that the above copyright notice, the following
   9:C:/MinGW/msys/1.0/esos32/src\esos_comm.c ****  * two paragraphs and the authors appear in all copies of this software.
  10:C:/MinGW/msys/1.0/esos32/src\esos_comm.c ****  *
  11:C:/MinGW/msys/1.0/esos32/src\esos_comm.c ****  * IN NO EVENT SHALL THE "AUTHORS" BE LIABLE TO ANY PARTY FOR
  12:C:/MinGW/msys/1.0/esos32/src\esos_comm.c ****  * DIRECT, INDIRECT, SPECIAL, INCIDENTAL, OR CONSEQUENTIAL DAMAGES ARISING OUT
  13:C:/MinGW/msys/1.0/esos32/src\esos_comm.c ****  * OF THE USE OF THIS SOFTWARE AND ITS DOCUMENTATION, EVEN IF THE "AUTHORS"
  14:C:/MinGW/msys/1.0/esos32/src\esos_comm.c ****  * HAS BEEN ADVISED OF THE POSSIBILITY OF SUCH DAMAGE.
  15:C:/MinGW/msys/1.0/esos32/src\esos_comm.c ****  *
  16:C:/MinGW/msys/1.0/esos32/src\esos_comm.c ****  * THE "AUTHORS" SPECIFICALLY DISCLAIMS ANY WARRANTIES,
  17:C:/MinGW/msys/1.0/esos32/src\esos_comm.c ****  * INCLUDING, BUT NOT LIMITED TO, THE IMPLIED WARRANTIES OF MERCHANTABILITY
  18:C:/MinGW/msys/1.0/esos32/src\esos_comm.c ****  * AND FITNESS FOR A PARTICULAR PURPOSE.  THE SOFTWARE PROVIDED HEREUNDER IS
  19:C:/MinGW/msys/1.0/esos32/src\esos_comm.c ****  * ON AN "AS IS" BASIS, AND THE "AUTHORS" HAS NO OBLIGATION TO
  20:C:/MinGW/msys/1.0/esos32/src\esos_comm.c ****  * PROVIDE MAINTENANCE, SUPPORT, UPDATES, ENHANCEMENTS, OR MODIFICATIONS."
  21:C:/MinGW/msys/1.0/esos32/src\esos_comm.c ****  *
  22:C:/MinGW/msys/1.0/esos32/src\esos_comm.c ****  * Please maintain this header in its entirety when copying/modifying
  23:C:/MinGW/msys/1.0/esos32/src\esos_comm.c ****  * these files.
  24:C:/MinGW/msys/1.0/esos32/src\esos_comm.c ****  *
  25:C:/MinGW/msys/1.0/esos32/src\esos_comm.c ****  *
  26:C:/MinGW/msys/1.0/esos32/src\esos_comm.c ****  */
  27:C:/MinGW/msys/1.0/esos32/src\esos_comm.c **** 
  28:C:/MinGW/msys/1.0/esos32/src\esos_comm.c **** /** \file
  29:C:/MinGW/msys/1.0/esos32/src\esos_comm.c ****  * \brief Hardware independent code for ESOS32 Communications service
  30:C:/MinGW/msys/1.0/esos32/src\esos_comm.c ****  *
ARM GAS  C:\Users\Travis\AppData\Local\Temp\cci1JC9h.s 			page 2


  31:C:/MinGW/msys/1.0/esos32/src\esos_comm.c ****  */
  32:C:/MinGW/msys/1.0/esos32/src\esos_comm.c **** 
  33:C:/MinGW/msys/1.0/esos32/src\esos_comm.c **** 
  34:C:/MinGW/msys/1.0/esos32/src\esos_comm.c **** #include    "esos.h"
  35:C:/MinGW/msys/1.0/esos32/src\esos_comm.c **** #include  	"esos_cb.h"
  36:C:/MinGW/msys/1.0/esos32/src\esos_comm.c **** #include    "esos_comm.h"
  37:C:/MinGW/msys/1.0/esos32/src\esos_comm.c **** 
  38:C:/MinGW/msys/1.0/esos32/src\esos_comm.c **** // ******** G L O B A L S ***************
  39:C:/MinGW/msys/1.0/esos32/src\esos_comm.c **** volatile uint8_t                __esos_comm_tx_buff[ESOS_SERIAL_IN_EP_SIZE];
  40:C:/MinGW/msys/1.0/esos32/src\esos_comm.c **** volatile uint8_t                __esos_comm_rx_buff[ESOS_SERIAL_OUT_EP_SIZE];
  41:C:/MinGW/msys/1.0/esos32/src\esos_comm.c **** CBUFFER                   __st_CB_Tx, __st_CB_Rx;
  42:C:/MinGW/msys/1.0/esos32/src\esos_comm.c **** CBUFFER*                    __pst_CB_Tx;
  43:C:/MinGW/msys/1.0/esos32/src\esos_comm.c **** CBUFFER*              __pst_CB_Rx;
  44:C:/MinGW/msys/1.0/esos32/src\esos_comm.c **** volatile struct    stTask   __stChildTaskTx, __stChildTaskRx;
  45:C:/MinGW/msys/1.0/esos32/src\esos_comm.c **** 
  46:C:/MinGW/msys/1.0/esos32/src\esos_comm.c **** /****************************************************************
  47:C:/MinGW/msys/1.0/esos32/src\esos_comm.c **** ** F U N C T I O N S
  48:C:/MinGW/msys/1.0/esos32/src\esos_comm.c **** ****************************************************************/
  49:C:/MinGW/msys/1.0/esos32/src\esos_comm.c **** void __esos_InitCommSystem(void) {
  29              		.loc 1 49 34 view -0
  30              		.cfi_startproc
  31              		@ args = 0, pretend = 0, frame = 0
  32              		@ frame_needed = 0, uses_anonymous_args = 0
  33 0000 10B5     		push	{r4, lr}
  34              	.LCFI0:
  35              		.cfi_def_cfa_offset 8
  36              		.cfi_offset 4, -8
  37              		.cfi_offset 14, -4
  50:C:/MinGW/msys/1.0/esos32/src\esos_comm.c ****   // setup the circular buffers & their descriptors
  51:C:/MinGW/msys/1.0/esos32/src\esos_comm.c ****   __pst_CB_Rx = &__st_CB_Rx;
  38              		.loc 1 51 3 view .LVU1
  39              		.loc 1 51 15 is_stmt 0 view .LVU2
  40 0002 094C     		ldr	r4, .L3
  41 0004 094B     		ldr	r3, .L3+4
  42 0006 2360     		str	r3, [r4]
  52:C:/MinGW/msys/1.0/esos32/src\esos_comm.c ****   __pst_CB_Tx = &__st_CB_Tx;
  43              		.loc 1 52 3 is_stmt 1 view .LVU3
  44              		.loc 1 52 15 is_stmt 0 view .LVU4
  45 0008 0948     		ldr	r0, .L3+8
  46 000a 0A4B     		ldr	r3, .L3+12
  47 000c 1860     		str	r0, [r3]
  53:C:/MinGW/msys/1.0/esos32/src\esos_comm.c ****   __esos_CB_Init( __pst_CB_Tx, __esos_comm_tx_buff, ESOS_SERIAL_IN_EP_SIZE);
  48              		.loc 1 53 3 is_stmt 1 view .LVU5
  49 000e 4022     		movs	r2, #64
  50 0010 0949     		ldr	r1, .L3+16
  51 0012 FFF7FEFF 		bl	__esos_CB_Init
  52              	.LVL0:
  54:C:/MinGW/msys/1.0/esos32/src\esos_comm.c ****   __esos_CB_Init( __pst_CB_Rx, __esos_comm_rx_buff, ESOS_SERIAL_OUT_EP_SIZE);
  53              		.loc 1 54 3 view .LVU6
  54 0016 4022     		movs	r2, #64
  55 0018 0849     		ldr	r1, .L3+20
  56 001a 2068     		ldr	r0, [r4]
  57 001c FFF7FEFF 		bl	__esos_CB_Init
  58              	.LVL1:
  55:C:/MinGW/msys/1.0/esos32/src\esos_comm.c **** 
  56:C:/MinGW/msys/1.0/esos32/src\esos_comm.c ****   __esos_hw_InitCommSystem();
  59              		.loc 1 56 3 view .LVU7
ARM GAS  C:\Users\Travis\AppData\Local\Temp\cci1JC9h.s 			page 3


  60 0020 FFF7FEFF 		bl	__esos_hw_InitCommSystem
  61              	.LVL2:
  57:C:/MinGW/msys/1.0/esos32/src\esos_comm.c **** 
  58:C:/MinGW/msys/1.0/esos32/src\esos_comm.c **** } // endof esos_Init_CommSystem()
  62              		.loc 1 58 1 is_stmt 0 view .LVU8
  63 0024 10BD     		pop	{r4, pc}
  64              	.L4:
  65 0026 00BF     		.align	2
  66              	.L3:
  67 0028 00000000 		.word	__pst_CB_Rx
  68 002c 00000000 		.word	__st_CB_Rx
  69 0030 00000000 		.word	__st_CB_Tx
  70 0034 00000000 		.word	__pst_CB_Tx
  71 0038 00000000 		.word	__esos_comm_tx_buff
  72 003c 00000000 		.word	__esos_comm_rx_buff
  73              		.cfi_endproc
  74              	.LFE0:
  76              		.section	.text.__esos_u8_GetMSBHexCharFromUint8,"ax",%progbits
  77              		.align	1
  78              		.global	__esos_u8_GetMSBHexCharFromUint8
  79              		.syntax unified
  80              		.thumb
  81              		.thumb_func
  82              		.fpu fpv4-sp-d16
  84              	__esos_u8_GetMSBHexCharFromUint8:
  85              	.LVL3:
  86              	.LFB1:
  59:C:/MinGW/msys/1.0/esos32/src\esos_comm.c **** 
  60:C:/MinGW/msys/1.0/esos32/src\esos_comm.c **** uint8_t __esos_u8_GetMSBHexCharFromUint8(uint8_t u8_x) {
  87              		.loc 1 60 56 is_stmt 1 view -0
  88              		.cfi_startproc
  89              		@ args = 0, pretend = 0, frame = 0
  90              		@ frame_needed = 0, uses_anonymous_args = 0
  91              		@ link register save eliminated.
  61:C:/MinGW/msys/1.0/esos32/src\esos_comm.c ****   uint8_t u8_c;
  92              		.loc 1 61 3 view .LVU10
  62:C:/MinGW/msys/1.0/esos32/src\esos_comm.c **** 
  63:C:/MinGW/msys/1.0/esos32/src\esos_comm.c ****   u8_c = (u8_x>>4)& 0xf;
  93              		.loc 1 63 3 view .LVU11
  94              		.loc 1 63 8 is_stmt 0 view .LVU12
  95 0000 0309     		lsrs	r3, r0, #4
  96              	.LVL4:
  64:C:/MinGW/msys/1.0/esos32/src\esos_comm.c ****   if (u8_c > 9) return('A'+u8_c-10);
  97              		.loc 1 64 3 is_stmt 1 view .LVU13
  98              		.loc 1 64 6 is_stmt 0 view .LVU14
  99 0002 9F28     		cmp	r0, #159
 100 0004 02D9     		bls	.L6
 101              		.loc 1 64 17 is_stmt 1 discriminator 1 view .LVU15
 102              		.loc 1 64 32 is_stmt 0 discriminator 1 view .LVU16
 103 0006 03F13700 		add	r0, r3, #55
 104              	.LVL5:
 105              		.loc 1 64 32 discriminator 1 view .LVU17
 106 000a 7047     		bx	lr
 107              	.LVL6:
 108              	.L6:
  65:C:/MinGW/msys/1.0/esos32/src\esos_comm.c ****   else return('0'+u8_c);
 109              		.loc 1 65 8 is_stmt 1 view .LVU18
ARM GAS  C:\Users\Travis\AppData\Local\Temp\cci1JC9h.s 			page 4


 110              		.loc 1 65 18 is_stmt 0 view .LVU19
 111 000c 03F13000 		add	r0, r3, #48
 112              	.LVL7:
  66:C:/MinGW/msys/1.0/esos32/src\esos_comm.c **** }
 113              		.loc 1 66 1 view .LVU20
 114 0010 7047     		bx	lr
 115              		.cfi_endproc
 116              	.LFE1:
 118              		.section	.text.__esos_u8_GetLSBHexCharFromUint8,"ax",%progbits
 119              		.align	1
 120              		.global	__esos_u8_GetLSBHexCharFromUint8
 121              		.syntax unified
 122              		.thumb
 123              		.thumb_func
 124              		.fpu fpv4-sp-d16
 126              	__esos_u8_GetLSBHexCharFromUint8:
 127              	.LVL8:
 128              	.LFB2:
  67:C:/MinGW/msys/1.0/esos32/src\esos_comm.c **** 
  68:C:/MinGW/msys/1.0/esos32/src\esos_comm.c **** uint8_t __esos_u8_GetLSBHexCharFromUint8(uint8_t u8_x) {
 129              		.loc 1 68 56 is_stmt 1 view -0
 130              		.cfi_startproc
 131              		@ args = 0, pretend = 0, frame = 0
 132              		@ frame_needed = 0, uses_anonymous_args = 0
 133              		@ link register save eliminated.
  69:C:/MinGW/msys/1.0/esos32/src\esos_comm.c ****   uint8_t u8_c;
 134              		.loc 1 69 3 view .LVU22
  70:C:/MinGW/msys/1.0/esos32/src\esos_comm.c **** 
  71:C:/MinGW/msys/1.0/esos32/src\esos_comm.c ****   u8_c = u8_x & 0xf;
 135              		.loc 1 71 3 view .LVU23
 136              		.loc 1 71 8 is_stmt 0 view .LVU24
 137 0000 00F00F00 		and	r0, r0, #15
 138              	.LVL9:
  72:C:/MinGW/msys/1.0/esos32/src\esos_comm.c ****   if (u8_c > 9) return('A'+u8_c-10);
 139              		.loc 1 72 3 is_stmt 1 view .LVU25
 140              		.loc 1 72 6 is_stmt 0 view .LVU26
 141 0004 0928     		cmp	r0, #9
 142 0006 01D9     		bls	.L9
 143              		.loc 1 72 17 is_stmt 1 discriminator 1 view .LVU27
 144              		.loc 1 72 32 is_stmt 0 discriminator 1 view .LVU28
 145 0008 3730     		adds	r0, r0, #55
 146              	.LVL10:
 147              		.loc 1 72 32 discriminator 1 view .LVU29
 148 000a 7047     		bx	lr
 149              	.LVL11:
 150              	.L9:
  73:C:/MinGW/msys/1.0/esos32/src\esos_comm.c ****   else return('0'+u8_c);
 151              		.loc 1 73 8 is_stmt 1 view .LVU30
 152              		.loc 1 73 18 is_stmt 0 view .LVU31
 153 000c 3030     		adds	r0, r0, #48
 154              	.LVL12:
  74:C:/MinGW/msys/1.0/esos32/src\esos_comm.c **** }
 155              		.loc 1 74 1 view .LVU32
 156 000e 7047     		bx	lr
 157              		.cfi_endproc
 158              	.LFE2:
 160              		.section	.text.__esos_OutChar,"ax",%progbits
ARM GAS  C:\Users\Travis\AppData\Local\Temp\cci1JC9h.s 			page 5


 161              		.align	1
 162              		.global	__esos_OutChar
 163              		.syntax unified
 164              		.thumb
 165              		.thumb_func
 166              		.fpu fpv4-sp-d16
 168              	__esos_OutChar:
 169              	.LVL13:
 170              	.LFB3:
  75:C:/MinGW/msys/1.0/esos32/src\esos_comm.c **** 
  76:C:/MinGW/msys/1.0/esos32/src\esos_comm.c **** 
  77:C:/MinGW/msys/1.0/esos32/src\esos_comm.c **** ESOS_CHILD_TASK( __esos_OutChar, uint8_t u8_c) {
 171              		.loc 1 77 48 is_stmt 1 view -0
 172              		.cfi_startproc
 173              		@ args = 0, pretend = 0, frame = 0
 174              		@ frame_needed = 0, uses_anonymous_args = 0
 175              		.loc 1 77 48 is_stmt 0 view .LVU34
 176 0000 10B5     		push	{r4, lr}
 177              	.LCFI1:
 178              		.cfi_def_cfa_offset 8
 179              		.cfi_offset 4, -8
 180              		.cfi_offset 14, -4
 181 0002 0446     		mov	r4, r0
  78:C:/MinGW/msys/1.0/esos32/src\esos_comm.c ****   static uint8_t        u8_localChar;
 182              		.loc 1 78 3 is_stmt 1 view .LVU35
  79:C:/MinGW/msys/1.0/esos32/src\esos_comm.c **** 
  80:C:/MinGW/msys/1.0/esos32/src\esos_comm.c ****   ESOS_TASK_BEGIN();
 183              		.loc 1 80 3 view .LVU36
 184 0004 8378     		ldrb	r3, [r0, #2]	@ zero_extendqisi2
 185 0006 43F08003 		orr	r3, r3, #128
 186 000a 8370     		strb	r3, [r0, #2]
 187              		.loc 1 80 3 view .LVU37
 188 000c 0288     		ldrh	r2, [r0]
 189 000e 3AB1     		cbz	r2, .L12
 190 0010 542A     		cmp	r2, #84
 191 0012 09D0     		beq	.L13
 192              	.LVL14:
 193              	.L14:
  81:C:/MinGW/msys/1.0/esos32/src\esos_comm.c ****   u8_localChar = u8_c;
  82:C:/MinGW/msys/1.0/esos32/src\esos_comm.c **** 
  83:C:/MinGW/msys/1.0/esos32/src\esos_comm.c ****   // wait for room in the TX CB to appear
  84:C:/MinGW/msys/1.0/esos32/src\esos_comm.c ****   ESOS_TASK_WAIT_WHILE_CB_IS_FULL( __pst_CB_Tx );
  85:C:/MinGW/msys/1.0/esos32/src\esos_comm.c ****   // write the data in the TX CB
  86:C:/MinGW/msys/1.0/esos32/src\esos_comm.c ****   __esos_CB_WriteUINT8( __pst_CB_Tx, u8_localChar);
  87:C:/MinGW/msys/1.0/esos32/src\esos_comm.c ****   // signal the hardware that a xfer should be started if
  88:C:/MinGW/msys/1.0/esos32/src\esos_comm.c ****   // not already ongoing
  89:C:/MinGW/msys/1.0/esos32/src\esos_comm.c ****   __esos_hw_signal_start_tx();
  90:C:/MinGW/msys/1.0/esos32/src\esos_comm.c **** 
  91:C:/MinGW/msys/1.0/esos32/src\esos_comm.c ****   ESOS_TASK_END();
 194              		.loc 1 91 3 view .LVU38
 195              		.loc 1 91 3 view .LVU39
 196 0014 0823     		movs	r3, #8
 197 0016 A370     		strb	r3, [r4, #2]
 198              		.loc 1 91 3 view .LVU40
 199 0018 0023     		movs	r3, #0
 200 001a 2380     		strh	r3, [r4]	@ movhi
 201              		.loc 1 91 3 view .LVU41
ARM GAS  C:\Users\Travis\AppData\Local\Temp\cci1JC9h.s 			page 6


 202              		.loc 1 91 3 view .LVU42
 203              		.loc 1 91 3 view .LVU43
 204 001c 0320     		movs	r0, #3
 205              	.L16:
 206              		.loc 1 91 18 discriminator 1 view .LVU44
  92:C:/MinGW/msys/1.0/esos32/src\esos_comm.c **** } // end __esos_OutChar
 207              		.loc 1 92 1 is_stmt 0 discriminator 1 view .LVU45
 208 001e 10BD     		pop	{r4, pc}
 209              	.LVL15:
 210              	.L12:
  80:C:/MinGW/msys/1.0/esos32/src\esos_comm.c ****   u8_localChar = u8_c;
 211              		.loc 1 80 20 is_stmt 1 discriminator 1 view .LVU46
  81:C:/MinGW/msys/1.0/esos32/src\esos_comm.c ****   u8_localChar = u8_c;
 212              		.loc 1 81 3 discriminator 1 view .LVU47
  81:C:/MinGW/msys/1.0/esos32/src\esos_comm.c ****   u8_localChar = u8_c;
 213              		.loc 1 81 16 is_stmt 0 discriminator 1 view .LVU48
 214 0020 124A     		ldr	r2, .L21
 215 0022 1170     		strb	r1, [r2]
  84:C:/MinGW/msys/1.0/esos32/src\esos_comm.c ****   // write the data in the TX CB
 216              		.loc 1 84 3 is_stmt 1 discriminator 1 view .LVU49
  84:C:/MinGW/msys/1.0/esos32/src\esos_comm.c ****   // write the data in the TX CB
 217              		.loc 1 84 3 discriminator 1 view .LVU50
 218 0024 5422     		movs	r2, #84
 219 0026 0280     		strh	r2, [r0]	@ movhi
 220              	.L13:
  84:C:/MinGW/msys/1.0/esos32/src\esos_comm.c ****   // write the data in the TX CB
 221              		.loc 1 84 3 discriminator 1 view .LVU51
  84:C:/MinGW/msys/1.0/esos32/src\esos_comm.c ****   // write the data in the TX CB
 222              		.loc 1 84 3 discriminator 1 view .LVU52
 223 0028 13F00400 		ands	r0, r3, #4
 224              	.LVL16:
  84:C:/MinGW/msys/1.0/esos32/src\esos_comm.c ****   // write the data in the TX CB
 225              		.loc 1 84 3 is_stmt 0 discriminator 1 view .LVU53
 226 002c 15D1     		bne	.L20
  84:C:/MinGW/msys/1.0/esos32/src\esos_comm.c ****   // write the data in the TX CB
 227              		.loc 1 84 3 is_stmt 1 discriminator 3 view .LVU54
 228 002e 104A     		ldr	r2, .L21+4
 229 0030 1268     		ldr	r2, [r2]
 230 0032 1188     		ldrh	r1, [r2]
 231              	.LVL17:
  84:C:/MinGW/msys/1.0/esos32/src\esos_comm.c ****   // write the data in the TX CB
 232              		.loc 1 84 3 is_stmt 0 discriminator 3 view .LVU55
 233 0034 9288     		ldrh	r2, [r2, #4]
 234 0036 9142     		cmp	r1, r2
 235 0038 13D0     		beq	.L17
  84:C:/MinGW/msys/1.0/esos32/src\esos_comm.c ****   // write the data in the TX CB
 236              		.loc 1 84 3 is_stmt 1 discriminator 4 view .LVU56
 237 003a 23F00103 		bic	r3, r3, #1
 238 003e A370     		strb	r3, [r4, #2]
 239              	.L18:
  84:C:/MinGW/msys/1.0/esos32/src\esos_comm.c ****   // write the data in the TX CB
 240              		.loc 1 84 3 discriminator 7 view .LVU57
 241 0040 A378     		ldrb	r3, [r4, #2]	@ zero_extendqisi2
 242 0042 13F0010F 		tst	r3, #1
 243 0046 EAD1     		bne	.L16
  84:C:/MinGW/msys/1.0/esos32/src\esos_comm.c ****   // write the data in the TX CB
 244              		.loc 1 84 3 discriminator 9 view .LVU58
ARM GAS  C:\Users\Travis\AppData\Local\Temp\cci1JC9h.s 			page 7


  86:C:/MinGW/msys/1.0/esos32/src\esos_comm.c ****   // signal the hardware that a xfer should be started if
 245              		.loc 1 86 3 discriminator 9 view .LVU59
 246 0048 084B     		ldr	r3, .L21
 247 004a 1978     		ldrb	r1, [r3]	@ zero_extendqisi2
 248 004c 084B     		ldr	r3, .L21+4
 249 004e 1868     		ldr	r0, [r3]
 250 0050 FFF7FEFF 		bl	__esos_CB_WriteUINT8
 251              	.LVL18:
  89:C:/MinGW/msys/1.0/esos32/src\esos_comm.c **** 
 252              		.loc 1 89 3 discriminator 9 view .LVU60
 253 0054 FFF7FEFF 		bl	__esos_hw_signal_start_tx
 254              	.LVL19:
 255 0058 DCE7     		b	.L14
 256              	.LVL20:
 257              	.L20:
  84:C:/MinGW/msys/1.0/esos32/src\esos_comm.c ****   // write the data in the TX CB
 258              		.loc 1 84 3 discriminator 2 view .LVU61
 259 005a 0423     		movs	r3, #4
 260 005c A370     		strb	r3, [r4, #2]
  84:C:/MinGW/msys/1.0/esos32/src\esos_comm.c ****   // write the data in the TX CB
 261              		.loc 1 84 3 discriminator 2 view .LVU62
 262 005e 0320     		movs	r0, #3
 263 0060 DDE7     		b	.L16
 264              	.LVL21:
 265              	.L17:
  84:C:/MinGW/msys/1.0/esos32/src\esos_comm.c ****   // write the data in the TX CB
 266              		.loc 1 84 3 discriminator 5 view .LVU63
 267 0062 43F00103 		orr	r3, r3, #1
 268 0066 A370     		strb	r3, [r4, #2]
 269 0068 EAE7     		b	.L18
 270              	.L22:
 271 006a 00BF     		.align	2
 272              	.L21:
 273 006c 00000000 		.word	.LANCHOR0
 274 0070 00000000 		.word	__pst_CB_Tx
 275              		.cfi_endproc
 276              	.LFE3:
 278              		.section	.text.__esos_OutUint8AsHexString,"ax",%progbits
 279              		.align	1
 280              		.global	__esos_OutUint8AsHexString
 281              		.syntax unified
 282              		.thumb
 283              		.thumb_func
 284              		.fpu fpv4-sp-d16
 286              	__esos_OutUint8AsHexString:
 287              	.LVL22:
 288              	.LFB4:
  93:C:/MinGW/msys/1.0/esos32/src\esos_comm.c **** 
  94:C:/MinGW/msys/1.0/esos32/src\esos_comm.c **** 
  95:C:/MinGW/msys/1.0/esos32/src\esos_comm.c **** ESOS_CHILD_TASK( __esos_OutUint8AsHexString, uint8_t u8_x) {
 289              		.loc 1 95 60 view -0
 290              		.cfi_startproc
 291              		@ args = 0, pretend = 0, frame = 0
 292              		@ frame_needed = 0, uses_anonymous_args = 0
 293              		.loc 1 95 60 is_stmt 0 view .LVU65
 294 0000 70B5     		push	{r4, r5, r6, lr}
 295              	.LCFI2:
ARM GAS  C:\Users\Travis\AppData\Local\Temp\cci1JC9h.s 			page 8


 296              		.cfi_def_cfa_offset 16
 297              		.cfi_offset 4, -16
 298              		.cfi_offset 5, -12
 299              		.cfi_offset 6, -8
 300              		.cfi_offset 14, -4
 301 0002 0446     		mov	r4, r0
  96:C:/MinGW/msys/1.0/esos32/src\esos_comm.c ****   static uint8_t        au8_String[5];
 302              		.loc 1 96 3 is_stmt 1 view .LVU66
  97:C:/MinGW/msys/1.0/esos32/src\esos_comm.c **** 
  98:C:/MinGW/msys/1.0/esos32/src\esos_comm.c ****   ESOS_TASK_BEGIN();
 303              		.loc 1 98 3 view .LVU67
 304 0004 8378     		ldrb	r3, [r0, #2]	@ zero_extendqisi2
 305 0006 63F07F03 		orn	r3, r3, #127
 306 000a 8370     		strb	r3, [r0, #2]
 307              		.loc 1 98 3 view .LVU68
 308 000c 0388     		ldrh	r3, [r0]
 309 000e 3BB1     		cbz	r3, .L24
 310 0010 692B     		cmp	r3, #105
 311 0012 17D0     		beq	.L25
 312              	.LVL23:
 313              	.L26:
  99:C:/MinGW/msys/1.0/esos32/src\esos_comm.c ****   au8_String[0] = '0';
 100:C:/MinGW/msys/1.0/esos32/src\esos_comm.c ****   au8_String[1] = 'x';
 101:C:/MinGW/msys/1.0/esos32/src\esos_comm.c ****   au8_String[2] = __esos_u8_GetMSBHexCharFromUint8(u8_x);
 102:C:/MinGW/msys/1.0/esos32/src\esos_comm.c ****   au8_String[3] = __esos_u8_GetLSBHexCharFromUint8(u8_x);
 103:C:/MinGW/msys/1.0/esos32/src\esos_comm.c ****   au8_String[4] = 0;
 104:C:/MinGW/msys/1.0/esos32/src\esos_comm.c **** 
 105:C:/MinGW/msys/1.0/esos32/src\esos_comm.c ****   ESOS_TASK_WAIT_UNTIL_CB_HAS_AVAILABLE_AT_LEAST( __pst_CB_Tx, 4);
 106:C:/MinGW/msys/1.0/esos32/src\esos_comm.c ****   __esos_CB_WriteUINT8Buffer( __pst_CB_Tx, &au8_String[0], 4 );
 107:C:/MinGW/msys/1.0/esos32/src\esos_comm.c ****   // signal the hardware that a xfer should be started if
 108:C:/MinGW/msys/1.0/esos32/src\esos_comm.c ****   // not already ongoing
 109:C:/MinGW/msys/1.0/esos32/src\esos_comm.c ****   __esos_hw_signal_start_tx();
 110:C:/MinGW/msys/1.0/esos32/src\esos_comm.c ****   ESOS_TASK_END();
 314              		.loc 1 110 3 view .LVU69
 315              		.loc 1 110 3 view .LVU70
 316 0014 0823     		movs	r3, #8
 317 0016 A370     		strb	r3, [r4, #2]
 318              		.loc 1 110 3 view .LVU71
 319 0018 0023     		movs	r3, #0
 320 001a 2380     		strh	r3, [r4]	@ movhi
 321              		.loc 1 110 3 view .LVU72
 322              		.loc 1 110 3 view .LVU73
 323              		.loc 1 110 3 view .LVU74
 324 001c 0320     		movs	r0, #3
 325              	.L28:
 326              		.loc 1 110 18 discriminator 1 view .LVU75
 111:C:/MinGW/msys/1.0/esos32/src\esos_comm.c **** 
 112:C:/MinGW/msys/1.0/esos32/src\esos_comm.c **** } // end __esos_OutUint8AsHexString()
 327              		.loc 1 112 1 is_stmt 0 discriminator 1 view .LVU76
 328 001e 70BD     		pop	{r4, r5, r6, pc}
 329              	.LVL24:
 330              	.L24:
 331              		.loc 1 112 1 discriminator 1 view .LVU77
 332 0020 0D46     		mov	r5, r1
  98:C:/MinGW/msys/1.0/esos32/src\esos_comm.c ****   au8_String[0] = '0';
 333              		.loc 1 98 20 is_stmt 1 discriminator 1 view .LVU78
  99:C:/MinGW/msys/1.0/esos32/src\esos_comm.c ****   au8_String[0] = '0';
ARM GAS  C:\Users\Travis\AppData\Local\Temp\cci1JC9h.s 			page 9


 334              		.loc 1 99 3 discriminator 1 view .LVU79
  99:C:/MinGW/msys/1.0/esos32/src\esos_comm.c ****   au8_String[0] = '0';
 335              		.loc 1 99 17 is_stmt 0 discriminator 1 view .LVU80
 336 0022 1A4E     		ldr	r6, .L33
 337 0024 3023     		movs	r3, #48
 338 0026 3370     		strb	r3, [r6]
 100:C:/MinGW/msys/1.0/esos32/src\esos_comm.c ****   au8_String[2] = __esos_u8_GetMSBHexCharFromUint8(u8_x);
 339              		.loc 1 100 3 is_stmt 1 discriminator 1 view .LVU81
 100:C:/MinGW/msys/1.0/esos32/src\esos_comm.c ****   au8_String[2] = __esos_u8_GetMSBHexCharFromUint8(u8_x);
 340              		.loc 1 100 17 is_stmt 0 discriminator 1 view .LVU82
 341 0028 7823     		movs	r3, #120
 342 002a 7370     		strb	r3, [r6, #1]
 101:C:/MinGW/msys/1.0/esos32/src\esos_comm.c ****   au8_String[3] = __esos_u8_GetLSBHexCharFromUint8(u8_x);
 343              		.loc 1 101 3 is_stmt 1 discriminator 1 view .LVU83
 101:C:/MinGW/msys/1.0/esos32/src\esos_comm.c ****   au8_String[3] = __esos_u8_GetLSBHexCharFromUint8(u8_x);
 344              		.loc 1 101 19 is_stmt 0 discriminator 1 view .LVU84
 345 002c 0846     		mov	r0, r1
 346              	.LVL25:
 101:C:/MinGW/msys/1.0/esos32/src\esos_comm.c ****   au8_String[3] = __esos_u8_GetLSBHexCharFromUint8(u8_x);
 347              		.loc 1 101 19 discriminator 1 view .LVU85
 348 002e FFF7FEFF 		bl	__esos_u8_GetMSBHexCharFromUint8
 349              	.LVL26:
 101:C:/MinGW/msys/1.0/esos32/src\esos_comm.c ****   au8_String[3] = __esos_u8_GetLSBHexCharFromUint8(u8_x);
 350              		.loc 1 101 17 discriminator 1 view .LVU86
 351 0032 B070     		strb	r0, [r6, #2]
 102:C:/MinGW/msys/1.0/esos32/src\esos_comm.c ****   au8_String[4] = 0;
 352              		.loc 1 102 3 is_stmt 1 discriminator 1 view .LVU87
 102:C:/MinGW/msys/1.0/esos32/src\esos_comm.c ****   au8_String[4] = 0;
 353              		.loc 1 102 19 is_stmt 0 discriminator 1 view .LVU88
 354 0034 2846     		mov	r0, r5
 355 0036 FFF7FEFF 		bl	__esos_u8_GetLSBHexCharFromUint8
 356              	.LVL27:
 102:C:/MinGW/msys/1.0/esos32/src\esos_comm.c ****   au8_String[4] = 0;
 357              		.loc 1 102 17 discriminator 1 view .LVU89
 358 003a F070     		strb	r0, [r6, #3]
 103:C:/MinGW/msys/1.0/esos32/src\esos_comm.c **** 
 359              		.loc 1 103 3 is_stmt 1 discriminator 1 view .LVU90
 103:C:/MinGW/msys/1.0/esos32/src\esos_comm.c **** 
 360              		.loc 1 103 17 is_stmt 0 discriminator 1 view .LVU91
 361 003c 0023     		movs	r3, #0
 362 003e 3371     		strb	r3, [r6, #4]
 105:C:/MinGW/msys/1.0/esos32/src\esos_comm.c ****   __esos_CB_WriteUINT8Buffer( __pst_CB_Tx, &au8_String[0], 4 );
 363              		.loc 1 105 3 is_stmt 1 discriminator 1 view .LVU92
 105:C:/MinGW/msys/1.0/esos32/src\esos_comm.c ****   __esos_CB_WriteUINT8Buffer( __pst_CB_Tx, &au8_String[0], 4 );
 364              		.loc 1 105 3 discriminator 1 view .LVU93
 365 0040 6923     		movs	r3, #105
 366 0042 2380     		strh	r3, [r4]	@ movhi
 367              	.L25:
 105:C:/MinGW/msys/1.0/esos32/src\esos_comm.c ****   __esos_CB_WriteUINT8Buffer( __pst_CB_Tx, &au8_String[0], 4 );
 368              		.loc 1 105 3 discriminator 1 view .LVU94
 105:C:/MinGW/msys/1.0/esos32/src\esos_comm.c ****   __esos_CB_WriteUINT8Buffer( __pst_CB_Tx, &au8_String[0], 4 );
 369              		.loc 1 105 3 discriminator 1 view .LVU95
 370 0044 A378     		ldrb	r3, [r4, #2]	@ zero_extendqisi2
 371 0046 13F00400 		ands	r0, r3, #4
 372 004a 16D1     		bne	.L32
 105:C:/MinGW/msys/1.0/esos32/src\esos_comm.c ****   __esos_CB_WriteUINT8Buffer( __pst_CB_Tx, &au8_String[0], 4 );
 373              		.loc 1 105 3 discriminator 3 view .LVU96
ARM GAS  C:\Users\Travis\AppData\Local\Temp\cci1JC9h.s 			page 10


 374 004c 104A     		ldr	r2, .L33+4
 375 004e 1168     		ldr	r1, [r2]
 376 0050 0A88     		ldrh	r2, [r1]
 377 0052 8988     		ldrh	r1, [r1, #4]
 378 0054 521A     		subs	r2, r2, r1
 379 0056 032A     		cmp	r2, #3
 380 0058 13DD     		ble	.L29
 105:C:/MinGW/msys/1.0/esos32/src\esos_comm.c ****   __esos_CB_WriteUINT8Buffer( __pst_CB_Tx, &au8_String[0], 4 );
 381              		.loc 1 105 3 discriminator 4 view .LVU97
 382 005a 23F00103 		bic	r3, r3, #1
 383 005e A370     		strb	r3, [r4, #2]
 384              	.L30:
 105:C:/MinGW/msys/1.0/esos32/src\esos_comm.c ****   __esos_CB_WriteUINT8Buffer( __pst_CB_Tx, &au8_String[0], 4 );
 385              		.loc 1 105 3 discriminator 7 view .LVU98
 386 0060 A378     		ldrb	r3, [r4, #2]	@ zero_extendqisi2
 387 0062 13F0010F 		tst	r3, #1
 388 0066 DAD1     		bne	.L28
 105:C:/MinGW/msys/1.0/esos32/src\esos_comm.c ****   __esos_CB_WriteUINT8Buffer( __pst_CB_Tx, &au8_String[0], 4 );
 389              		.loc 1 105 3 discriminator 9 view .LVU99
 106:C:/MinGW/msys/1.0/esos32/src\esos_comm.c ****   // signal the hardware that a xfer should be started if
 390              		.loc 1 106 3 discriminator 9 view .LVU100
 391 0068 0422     		movs	r2, #4
 392 006a 0849     		ldr	r1, .L33
 393 006c 084B     		ldr	r3, .L33+4
 394 006e 1868     		ldr	r0, [r3]
 395 0070 FFF7FEFF 		bl	__esos_CB_WriteUINT8Buffer
 396              	.LVL28:
 109:C:/MinGW/msys/1.0/esos32/src\esos_comm.c ****   ESOS_TASK_END();
 397              		.loc 1 109 3 discriminator 9 view .LVU101
 398 0074 FFF7FEFF 		bl	__esos_hw_signal_start_tx
 399              	.LVL29:
 400 0078 CCE7     		b	.L26
 401              	.L32:
 105:C:/MinGW/msys/1.0/esos32/src\esos_comm.c ****   __esos_CB_WriteUINT8Buffer( __pst_CB_Tx, &au8_String[0], 4 );
 402              		.loc 1 105 3 discriminator 2 view .LVU102
 403 007a 0423     		movs	r3, #4
 404 007c A370     		strb	r3, [r4, #2]
 105:C:/MinGW/msys/1.0/esos32/src\esos_comm.c ****   __esos_CB_WriteUINT8Buffer( __pst_CB_Tx, &au8_String[0], 4 );
 405              		.loc 1 105 3 discriminator 2 view .LVU103
 406 007e 0320     		movs	r0, #3
 407 0080 CDE7     		b	.L28
 408              	.L29:
 105:C:/MinGW/msys/1.0/esos32/src\esos_comm.c ****   __esos_CB_WriteUINT8Buffer( __pst_CB_Tx, &au8_String[0], 4 );
 409              		.loc 1 105 3 discriminator 5 view .LVU104
 410 0082 43F00103 		orr	r3, r3, #1
 411 0086 A370     		strb	r3, [r4, #2]
 412 0088 EAE7     		b	.L30
 413              	.L34:
 414 008a 00BF     		.align	2
 415              	.L33:
 416 008c 00000000 		.word	.LANCHOR1
 417 0090 00000000 		.word	__pst_CB_Tx
 418              		.cfi_endproc
 419              	.LFE4:
 421              		.section	.text.__esos_OutUint8AsDecString,"ax",%progbits
 422              		.align	1
 423              		.global	__esos_OutUint8AsDecString
ARM GAS  C:\Users\Travis\AppData\Local\Temp\cci1JC9h.s 			page 11


 424              		.syntax unified
 425              		.thumb
 426              		.thumb_func
 427              		.fpu fpv4-sp-d16
 429              	__esos_OutUint8AsDecString:
 430              	.LVL30:
 431              	.LFB5:
 113:C:/MinGW/msys/1.0/esos32/src\esos_comm.c **** 
 114:C:/MinGW/msys/1.0/esos32/src\esos_comm.c **** ESOS_CHILD_TASK( __esos_OutUint8AsDecString, uint8_t u8_x) {
 432              		.loc 1 114 60 view -0
 433              		.cfi_startproc
 434              		@ args = 0, pretend = 0, frame = 0
 435              		@ frame_needed = 0, uses_anonymous_args = 0
 436              		.loc 1 114 60 is_stmt 0 view .LVU106
 437 0000 38B5     		push	{r3, r4, r5, lr}
 438              	.LCFI3:
 439              		.cfi_def_cfa_offset 16
 440              		.cfi_offset 3, -16
 441              		.cfi_offset 4, -12
 442              		.cfi_offset 5, -8
 443              		.cfi_offset 14, -4
 444 0002 0446     		mov	r4, r0
 115:C:/MinGW/msys/1.0/esos32/src\esos_comm.c ****   // code provided by Gary Weasel
 116:C:/MinGW/msys/1.0/esos32/src\esos_comm.c ****   static uint8_t      au8_String[5];
 445              		.loc 1 116 3 is_stmt 1 view .LVU107
 117:C:/MinGW/msys/1.0/esos32/src\esos_comm.c ****   static uint8_t      u8_c;
 446              		.loc 1 117 3 view .LVU108
 118:C:/MinGW/msys/1.0/esos32/src\esos_comm.c ****   static uint8_t      u8_digit;
 447              		.loc 1 118 3 view .LVU109
 119:C:/MinGW/msys/1.0/esos32/src\esos_comm.c **** 
 120:C:/MinGW/msys/1.0/esos32/src\esos_comm.c **** 
 121:C:/MinGW/msys/1.0/esos32/src\esos_comm.c ****   ESOS_TASK_BEGIN();
 448              		.loc 1 121 3 view .LVU110
 449 0004 8378     		ldrb	r3, [r0, #2]	@ zero_extendqisi2
 450 0006 63F07F03 		orn	r3, r3, #127
 451 000a 8370     		strb	r3, [r0, #2]
 452              		.loc 1 121 3 view .LVU111
 453 000c 0388     		ldrh	r3, [r0]
 454 000e 3BB1     		cbz	r3, .L36
 455 0010 842B     		cmp	r3, #132
 456 0012 44D0     		beq	.L37
 457              	.LVL31:
 458              	.L38:
 122:C:/MinGW/msys/1.0/esos32/src\esos_comm.c ****   u8_digit = 0;
 123:C:/MinGW/msys/1.0/esos32/src\esos_comm.c ****   if (u8_x > 99)
 124:C:/MinGW/msys/1.0/esos32/src\esos_comm.c ****     au8_String[u8_digit++] = '0' + u8_x / 100;
 125:C:/MinGW/msys/1.0/esos32/src\esos_comm.c ****   if (u8_x > 9)
 126:C:/MinGW/msys/1.0/esos32/src\esos_comm.c ****     au8_String[u8_digit++] = '0' + (u8_x % 100) / 10;
 127:C:/MinGW/msys/1.0/esos32/src\esos_comm.c ****   au8_String[u8_digit++] = '0' + (u8_x % 10);
 128:C:/MinGW/msys/1.0/esos32/src\esos_comm.c ****   au8_String[u8_digit] = 0;
 129:C:/MinGW/msys/1.0/esos32/src\esos_comm.c ****   u8_c = 0;
 130:C:/MinGW/msys/1.0/esos32/src\esos_comm.c ****   while (u8_c < u8_digit) {
 131:C:/MinGW/msys/1.0/esos32/src\esos_comm.c ****     // wait for room in the TX CB to appear
 132:C:/MinGW/msys/1.0/esos32/src\esos_comm.c ****     ESOS_TASK_WAIT_WHILE_CB_IS_FULL( __pst_CB_Tx );
 133:C:/MinGW/msys/1.0/esos32/src\esos_comm.c ****     // write the data in the TX CB
 134:C:/MinGW/msys/1.0/esos32/src\esos_comm.c ****     __esos_CB_WriteUINT8( __pst_CB_Tx, au8_String[u8_c++] );
 135:C:/MinGW/msys/1.0/esos32/src\esos_comm.c ****   } //end while()
ARM GAS  C:\Users\Travis\AppData\Local\Temp\cci1JC9h.s 			page 12


 136:C:/MinGW/msys/1.0/esos32/src\esos_comm.c ****   // signal the hardware that a xfer should be started if
 137:C:/MinGW/msys/1.0/esos32/src\esos_comm.c ****   // not already ongoing
 138:C:/MinGW/msys/1.0/esos32/src\esos_comm.c ****   __esos_hw_signal_start_tx();
 139:C:/MinGW/msys/1.0/esos32/src\esos_comm.c ****   ESOS_TASK_END();
 459              		.loc 1 139 3 view .LVU112
 460              		.loc 1 139 3 view .LVU113
 461 0014 0823     		movs	r3, #8
 462 0016 A370     		strb	r3, [r4, #2]
 463              		.loc 1 139 3 view .LVU114
 464 0018 0023     		movs	r3, #0
 465 001a 2380     		strh	r3, [r4]	@ movhi
 466              		.loc 1 139 3 view .LVU115
 467              		.loc 1 139 3 view .LVU116
 468              		.loc 1 139 3 view .LVU117
 469 001c 0320     		movs	r0, #3
 470              	.L43:
 471              		.loc 1 139 18 discriminator 1 view .LVU118
 140:C:/MinGW/msys/1.0/esos32/src\esos_comm.c **** } // end __esos_OutUint8AsDecString
 472              		.loc 1 140 1 is_stmt 0 discriminator 1 view .LVU119
 473 001e 38BD     		pop	{r3, r4, r5, pc}
 474              	.LVL32:
 475              	.L36:
 121:C:/MinGW/msys/1.0/esos32/src\esos_comm.c ****   u8_digit = 0;
 476              		.loc 1 121 20 is_stmt 1 discriminator 1 view .LVU120
 122:C:/MinGW/msys/1.0/esos32/src\esos_comm.c ****   u8_digit = 0;
 477              		.loc 1 122 3 discriminator 1 view .LVU121
 122:C:/MinGW/msys/1.0/esos32/src\esos_comm.c ****   u8_digit = 0;
 478              		.loc 1 122 12 is_stmt 0 discriminator 1 view .LVU122
 479 0020 324B     		ldr	r3, .L50
 480 0022 0022     		movs	r2, #0
 481 0024 1A70     		strb	r2, [r3]
 123:C:/MinGW/msys/1.0/esos32/src\esos_comm.c ****     au8_String[u8_digit++] = '0' + u8_x / 100;
 482              		.loc 1 123 3 is_stmt 1 discriminator 1 view .LVU123
 123:C:/MinGW/msys/1.0/esos32/src\esos_comm.c ****     au8_String[u8_digit++] = '0' + u8_x / 100;
 483              		.loc 1 123 6 is_stmt 0 discriminator 1 view .LVU124
 484 0026 6329     		cmp	r1, #99
 485 0028 08D9     		bls	.L39
 124:C:/MinGW/msys/1.0/esos32/src\esos_comm.c ****   if (u8_x > 9)
 486              		.loc 1 124 5 is_stmt 1 view .LVU125
 124:C:/MinGW/msys/1.0/esos32/src\esos_comm.c ****   if (u8_x > 9)
 487              		.loc 1 124 24 is_stmt 0 view .LVU126
 488 002a 0122     		movs	r2, #1
 489 002c 1A70     		strb	r2, [r3]
 124:C:/MinGW/msys/1.0/esos32/src\esos_comm.c ****   if (u8_x > 9)
 490              		.loc 1 124 34 view .LVU127
 491 002e 304B     		ldr	r3, .L50+4
 492 0030 A3FB0123 		umull	r2, r3, r3, r1
 493 0034 5B09     		lsrs	r3, r3, #5
 494 0036 3033     		adds	r3, r3, #48
 124:C:/MinGW/msys/1.0/esos32/src\esos_comm.c ****   if (u8_x > 9)
 495              		.loc 1 124 28 view .LVU128
 496 0038 2E4A     		ldr	r2, .L50+8
 497 003a 1370     		strb	r3, [r2]
 498              	.L39:
 125:C:/MinGW/msys/1.0/esos32/src\esos_comm.c ****     au8_String[u8_digit++] = '0' + (u8_x % 100) / 10;
 499              		.loc 1 125 3 is_stmt 1 view .LVU129
 125:C:/MinGW/msys/1.0/esos32/src\esos_comm.c ****     au8_String[u8_digit++] = '0' + (u8_x % 100) / 10;
ARM GAS  C:\Users\Travis\AppData\Local\Temp\cci1JC9h.s 			page 13


 500              		.loc 1 125 6 is_stmt 0 view .LVU130
 501 003c 0929     		cmp	r1, #9
 502 003e 12D9     		bls	.L40
 126:C:/MinGW/msys/1.0/esos32/src\esos_comm.c ****   au8_String[u8_digit++] = '0' + (u8_x % 10);
 503              		.loc 1 126 5 is_stmt 1 view .LVU131
 126:C:/MinGW/msys/1.0/esos32/src\esos_comm.c ****   au8_String[u8_digit++] = '0' + (u8_x % 10);
 504              		.loc 1 126 24 is_stmt 0 view .LVU132
 505 0040 2A4B     		ldr	r3, .L50
 506 0042 1A78     		ldrb	r2, [r3]	@ zero_extendqisi2
 507 0044 501C     		adds	r0, r2, #1
 508              	.LVL33:
 126:C:/MinGW/msys/1.0/esos32/src\esos_comm.c ****   au8_String[u8_digit++] = '0' + (u8_x % 10);
 509              		.loc 1 126 24 view .LVU133
 510 0046 1870     		strb	r0, [r3]
 126:C:/MinGW/msys/1.0/esos32/src\esos_comm.c ****   au8_String[u8_digit++] = '0' + (u8_x % 10);
 511              		.loc 1 126 34 view .LVU134
 512 0048 294B     		ldr	r3, .L50+4
 513 004a A3FB0103 		umull	r0, r3, r3, r1
 514 004e 5B09     		lsrs	r3, r3, #5
 515 0050 6420     		movs	r0, #100
 516 0052 00FB1313 		mls	r3, r0, r3, r1
 517 0056 DBB2     		uxtb	r3, r3
 518 0058 2748     		ldr	r0, .L50+12
 519 005a A0FB0303 		umull	r0, r3, r0, r3
 520 005e DB08     		lsrs	r3, r3, #3
 521 0060 3033     		adds	r3, r3, #48
 126:C:/MinGW/msys/1.0/esos32/src\esos_comm.c ****   au8_String[u8_digit++] = '0' + (u8_x % 10);
 522              		.loc 1 126 28 view .LVU135
 523 0062 2448     		ldr	r0, .L50+8
 524 0064 8354     		strb	r3, [r0, r2]
 525              	.L40:
 127:C:/MinGW/msys/1.0/esos32/src\esos_comm.c ****   au8_String[u8_digit] = 0;
 526              		.loc 1 127 3 is_stmt 1 view .LVU136
 127:C:/MinGW/msys/1.0/esos32/src\esos_comm.c ****   au8_String[u8_digit] = 0;
 527              		.loc 1 127 22 is_stmt 0 view .LVU137
 528 0066 214B     		ldr	r3, .L50
 529 0068 1D78     		ldrb	r5, [r3]	@ zero_extendqisi2
 530 006a 6A1C     		adds	r2, r5, #1
 531 006c D2B2     		uxtb	r2, r2
 532 006e 1A70     		strb	r2, [r3]
 127:C:/MinGW/msys/1.0/esos32/src\esos_comm.c ****   au8_String[u8_digit] = 0;
 533              		.loc 1 127 32 view .LVU138
 534 0070 214B     		ldr	r3, .L50+12
 535 0072 A3FB0103 		umull	r0, r3, r3, r1
 536 0076 DB08     		lsrs	r3, r3, #3
 537 0078 03EB8303 		add	r3, r3, r3, lsl #2
 538 007c A1EB4301 		sub	r1, r1, r3, lsl #1
 539              	.LVL34:
 127:C:/MinGW/msys/1.0/esos32/src\esos_comm.c ****   au8_String[u8_digit] = 0;
 540              		.loc 1 127 32 view .LVU139
 541 0080 3031     		adds	r1, r1, #48
 127:C:/MinGW/msys/1.0/esos32/src\esos_comm.c ****   au8_String[u8_digit] = 0;
 542              		.loc 1 127 26 view .LVU140
 543 0082 1C48     		ldr	r0, .L50+8
 544 0084 4155     		strb	r1, [r0, r5]
 128:C:/MinGW/msys/1.0/esos32/src\esos_comm.c ****   u8_c = 0;
 545              		.loc 1 128 3 is_stmt 1 view .LVU141
ARM GAS  C:\Users\Travis\AppData\Local\Temp\cci1JC9h.s 			page 14


 128:C:/MinGW/msys/1.0/esos32/src\esos_comm.c ****   u8_c = 0;
 546              		.loc 1 128 24 is_stmt 0 view .LVU142
 547 0086 0023     		movs	r3, #0
 548 0088 8354     		strb	r3, [r0, r2]
 129:C:/MinGW/msys/1.0/esos32/src\esos_comm.c ****   while (u8_c < u8_digit) {
 549              		.loc 1 129 3 is_stmt 1 view .LVU143
 129:C:/MinGW/msys/1.0/esos32/src\esos_comm.c ****   while (u8_c < u8_digit) {
 550              		.loc 1 129 8 is_stmt 0 view .LVU144
 551 008a 1C4A     		ldr	r2, .L50+16
 552 008c 1370     		strb	r3, [r2]
 130:C:/MinGW/msys/1.0/esos32/src\esos_comm.c ****     // wait for room in the TX CB to appear
 553              		.loc 1 130 3 is_stmt 1 view .LVU145
 554              	.L41:
 130:C:/MinGW/msys/1.0/esos32/src\esos_comm.c ****     // wait for room in the TX CB to appear
 555              		.loc 1 130 9 view .LVU146
 130:C:/MinGW/msys/1.0/esos32/src\esos_comm.c ****     // wait for room in the TX CB to appear
 556              		.loc 1 130 15 is_stmt 0 view .LVU147
 557 008e 1B4B     		ldr	r3, .L50+16
 558 0090 1A78     		ldrb	r2, [r3]	@ zero_extendqisi2
 559 0092 164B     		ldr	r3, .L50
 560 0094 1B78     		ldrb	r3, [r3]	@ zero_extendqisi2
 130:C:/MinGW/msys/1.0/esos32/src\esos_comm.c ****     // wait for room in the TX CB to appear
 561              		.loc 1 130 9 view .LVU148
 562 0096 9A42     		cmp	r2, r3
 563 0098 25D2     		bcs	.L48
 132:C:/MinGW/msys/1.0/esos32/src\esos_comm.c ****     // write the data in the TX CB
 564              		.loc 1 132 5 is_stmt 1 view .LVU149
 132:C:/MinGW/msys/1.0/esos32/src\esos_comm.c ****     // write the data in the TX CB
 565              		.loc 1 132 5 view .LVU150
 566 009a 8423     		movs	r3, #132
 567 009c 2380     		strh	r3, [r4]	@ movhi
 568              	.L37:
 132:C:/MinGW/msys/1.0/esos32/src\esos_comm.c ****     // write the data in the TX CB
 569              		.loc 1 132 5 discriminator 1 view .LVU151
 132:C:/MinGW/msys/1.0/esos32/src\esos_comm.c ****     // write the data in the TX CB
 570              		.loc 1 132 5 discriminator 1 view .LVU152
 571 009e A378     		ldrb	r3, [r4, #2]	@ zero_extendqisi2
 572 00a0 13F00400 		ands	r0, r3, #4
 573 00a4 17D1     		bne	.L49
 132:C:/MinGW/msys/1.0/esos32/src\esos_comm.c ****     // write the data in the TX CB
 574              		.loc 1 132 5 discriminator 3 view .LVU153
 575 00a6 164A     		ldr	r2, .L50+20
 576 00a8 1268     		ldr	r2, [r2]
 577 00aa 1188     		ldrh	r1, [r2]
 578 00ac 9288     		ldrh	r2, [r2, #4]
 579 00ae 9142     		cmp	r1, r2
 580 00b0 15D0     		beq	.L44
 132:C:/MinGW/msys/1.0/esos32/src\esos_comm.c ****     // write the data in the TX CB
 581              		.loc 1 132 5 discriminator 4 view .LVU154
 582 00b2 23F00103 		bic	r3, r3, #1
 583 00b6 A370     		strb	r3, [r4, #2]
 584              	.L45:
 132:C:/MinGW/msys/1.0/esos32/src\esos_comm.c ****     // write the data in the TX CB
 585              		.loc 1 132 5 discriminator 7 view .LVU155
 586 00b8 A378     		ldrb	r3, [r4, #2]	@ zero_extendqisi2
 587 00ba 13F0010F 		tst	r3, #1
 588 00be AED1     		bne	.L43
ARM GAS  C:\Users\Travis\AppData\Local\Temp\cci1JC9h.s 			page 15


 132:C:/MinGW/msys/1.0/esos32/src\esos_comm.c ****     // write the data in the TX CB
 589              		.loc 1 132 5 discriminator 9 view .LVU156
 134:C:/MinGW/msys/1.0/esos32/src\esos_comm.c ****   } //end while()
 590              		.loc 1 134 5 discriminator 9 view .LVU157
 134:C:/MinGW/msys/1.0/esos32/src\esos_comm.c ****   } //end while()
 591              		.loc 1 134 55 is_stmt 0 discriminator 9 view .LVU158
 592 00c0 0E4A     		ldr	r2, .L50+16
 593 00c2 1378     		ldrb	r3, [r2]	@ zero_extendqisi2
 594 00c4 591C     		adds	r1, r3, #1
 595 00c6 1170     		strb	r1, [r2]
 134:C:/MinGW/msys/1.0/esos32/src\esos_comm.c ****   } //end while()
 596              		.loc 1 134 5 discriminator 9 view .LVU159
 597 00c8 0A4A     		ldr	r2, .L50+8
 598 00ca D15C     		ldrb	r1, [r2, r3]	@ zero_extendqisi2
 599 00cc 0C4B     		ldr	r3, .L50+20
 600 00ce 1868     		ldr	r0, [r3]
 601 00d0 FFF7FEFF 		bl	__esos_CB_WriteUINT8
 602              	.LVL35:
 603 00d4 DBE7     		b	.L41
 604              	.L49:
 132:C:/MinGW/msys/1.0/esos32/src\esos_comm.c ****     // write the data in the TX CB
 605              		.loc 1 132 5 is_stmt 1 discriminator 2 view .LVU160
 606 00d6 0423     		movs	r3, #4
 607 00d8 A370     		strb	r3, [r4, #2]
 132:C:/MinGW/msys/1.0/esos32/src\esos_comm.c ****     // write the data in the TX CB
 608              		.loc 1 132 5 discriminator 2 view .LVU161
 609 00da 0320     		movs	r0, #3
 610 00dc 9FE7     		b	.L43
 611              	.L44:
 132:C:/MinGW/msys/1.0/esos32/src\esos_comm.c ****     // write the data in the TX CB
 612              		.loc 1 132 5 discriminator 5 view .LVU162
 613 00de 43F00103 		orr	r3, r3, #1
 614 00e2 A370     		strb	r3, [r4, #2]
 615 00e4 E8E7     		b	.L45
 616              	.L48:
 138:C:/MinGW/msys/1.0/esos32/src\esos_comm.c ****   ESOS_TASK_END();
 617              		.loc 1 138 3 view .LVU163
 618 00e6 FFF7FEFF 		bl	__esos_hw_signal_start_tx
 619              	.LVL36:
 620 00ea 93E7     		b	.L38
 621              	.L51:
 622              		.align	2
 623              	.L50:
 624 00ec 00000000 		.word	.LANCHOR2
 625 00f0 1F85EB51 		.word	1374389535
 626 00f4 00000000 		.word	.LANCHOR3
 627 00f8 CDCCCCCC 		.word	-858993459
 628 00fc 00000000 		.word	.LANCHOR4
 629 0100 00000000 		.word	__pst_CB_Tx
 630              		.cfi_endproc
 631              	.LFE5:
 633              		.section	.text.__esos_OutUint32AsHexString,"ax",%progbits
 634              		.align	1
 635              		.global	__esos_OutUint32AsHexString
 636              		.syntax unified
 637              		.thumb
 638              		.thumb_func
ARM GAS  C:\Users\Travis\AppData\Local\Temp\cci1JC9h.s 			page 16


 639              		.fpu fpv4-sp-d16
 641              	__esos_OutUint32AsHexString:
 642              	.LVL37:
 643              	.LFB6:
 141:C:/MinGW/msys/1.0/esos32/src\esos_comm.c **** 
 142:C:/MinGW/msys/1.0/esos32/src\esos_comm.c **** ESOS_CHILD_TASK( __esos_OutUint32AsHexString, uint32_t u32_x) {
 644              		.loc 1 142 63 view -0
 645              		.cfi_startproc
 646              		@ args = 0, pretend = 0, frame = 0
 647              		@ frame_needed = 0, uses_anonymous_args = 0
 648              		.loc 1 142 63 is_stmt 0 view .LVU165
 649 0000 F8B5     		push	{r3, r4, r5, r6, r7, lr}
 650              	.LCFI4:
 651              		.cfi_def_cfa_offset 24
 652              		.cfi_offset 3, -24
 653              		.cfi_offset 4, -20
 654              		.cfi_offset 5, -16
 655              		.cfi_offset 6, -12
 656              		.cfi_offset 7, -8
 657              		.cfi_offset 14, -4
 658 0002 0446     		mov	r4, r0
 143:C:/MinGW/msys/1.0/esos32/src\esos_comm.c ****   static uint8_t        au8_String[11];
 659              		.loc 1 143 3 is_stmt 1 view .LVU166
 144:C:/MinGW/msys/1.0/esos32/src\esos_comm.c ****   static uint8_t        u8_c;
 660              		.loc 1 144 3 view .LVU167
 145:C:/MinGW/msys/1.0/esos32/src\esos_comm.c **** 
 146:C:/MinGW/msys/1.0/esos32/src\esos_comm.c ****   ESOS_TASK_BEGIN();
 661              		.loc 1 146 3 view .LVU168
 662 0004 8378     		ldrb	r3, [r0, #2]	@ zero_extendqisi2
 663 0006 63F07F03 		orn	r3, r3, #127
 664 000a 8370     		strb	r3, [r0, #2]
 665              		.loc 1 146 3 view .LVU169
 666 000c 0388     		ldrh	r3, [r0]
 667 000e 3BB1     		cbz	r3, .L53
 668 0010 A42B     		cmp	r3, #164
 669 0012 35D0     		beq	.L54
 670              	.LVL38:
 671              	.L55:
 147:C:/MinGW/msys/1.0/esos32/src\esos_comm.c ****   au8_String[0] = '0';
 148:C:/MinGW/msys/1.0/esos32/src\esos_comm.c ****   au8_String[1] = 'x';
 149:C:/MinGW/msys/1.0/esos32/src\esos_comm.c ****   u8_c = (u32_x >> 24);
 150:C:/MinGW/msys/1.0/esos32/src\esos_comm.c ****   au8_String[2] = __esos_u8_GetMSBHexCharFromUint8(u8_c);
 151:C:/MinGW/msys/1.0/esos32/src\esos_comm.c ****   au8_String[3] = __esos_u8_GetLSBHexCharFromUint8(u8_c);
 152:C:/MinGW/msys/1.0/esos32/src\esos_comm.c ****   u8_c = (u32_x >> 16);
 153:C:/MinGW/msys/1.0/esos32/src\esos_comm.c ****   au8_String[4] = __esos_u8_GetMSBHexCharFromUint8(u8_c);
 154:C:/MinGW/msys/1.0/esos32/src\esos_comm.c ****   au8_String[5] = __esos_u8_GetLSBHexCharFromUint8(u8_c);
 155:C:/MinGW/msys/1.0/esos32/src\esos_comm.c ****   u8_c = (u32_x >> 8);
 156:C:/MinGW/msys/1.0/esos32/src\esos_comm.c ****   au8_String[6] = __esos_u8_GetMSBHexCharFromUint8(u8_c);
 157:C:/MinGW/msys/1.0/esos32/src\esos_comm.c ****   au8_String[7] = __esos_u8_GetLSBHexCharFromUint8(u8_c);
 158:C:/MinGW/msys/1.0/esos32/src\esos_comm.c ****   u8_c = u32_x;
 159:C:/MinGW/msys/1.0/esos32/src\esos_comm.c ****   au8_String[8] = __esos_u8_GetMSBHexCharFromUint8(u8_c);
 160:C:/MinGW/msys/1.0/esos32/src\esos_comm.c ****   au8_String[9] = __esos_u8_GetLSBHexCharFromUint8(u8_c);
 161:C:/MinGW/msys/1.0/esos32/src\esos_comm.c ****   au8_String[10] = 0;
 162:C:/MinGW/msys/1.0/esos32/src\esos_comm.c ****   u8_c = 0;
 163:C:/MinGW/msys/1.0/esos32/src\esos_comm.c **** 
 164:C:/MinGW/msys/1.0/esos32/src\esos_comm.c ****   ESOS_TASK_WAIT_UNTIL_CB_HAS_AVAILABLE_AT_LEAST( __pst_CB_Tx, 10);
 165:C:/MinGW/msys/1.0/esos32/src\esos_comm.c ****   __esos_CB_WriteUINT8Buffer( __pst_CB_Tx, &au8_String[0], 10 );
ARM GAS  C:\Users\Travis\AppData\Local\Temp\cci1JC9h.s 			page 17


 166:C:/MinGW/msys/1.0/esos32/src\esos_comm.c ****   // signal the hardware that a xfer should be started if
 167:C:/MinGW/msys/1.0/esos32/src\esos_comm.c ****   // not already ongoing
 168:C:/MinGW/msys/1.0/esos32/src\esos_comm.c ****   __esos_hw_signal_start_tx();
 169:C:/MinGW/msys/1.0/esos32/src\esos_comm.c ****   ESOS_TASK_END();
 672              		.loc 1 169 3 view .LVU170
 673              		.loc 1 169 3 view .LVU171
 674 0014 0823     		movs	r3, #8
 675 0016 A370     		strb	r3, [r4, #2]
 676              		.loc 1 169 3 view .LVU172
 677 0018 0023     		movs	r3, #0
 678 001a 2380     		strh	r3, [r4]	@ movhi
 679              		.loc 1 169 3 view .LVU173
 680              		.loc 1 169 3 view .LVU174
 681              		.loc 1 169 3 view .LVU175
 682 001c 0320     		movs	r0, #3
 683              	.L57:
 684              		.loc 1 169 18 discriminator 1 view .LVU176
 170:C:/MinGW/msys/1.0/esos32/src\esos_comm.c **** 
 171:C:/MinGW/msys/1.0/esos32/src\esos_comm.c **** } // end __esos_OutUint32AsHexString()
 685              		.loc 1 171 1 is_stmt 0 discriminator 1 view .LVU177
 686 001e F8BD     		pop	{r3, r4, r5, r6, r7, pc}
 687              	.LVL39:
 688              	.L53:
 689              		.loc 1 171 1 discriminator 1 view .LVU178
 690 0020 0D46     		mov	r5, r1
 146:C:/MinGW/msys/1.0/esos32/src\esos_comm.c ****   au8_String[0] = '0';
 691              		.loc 1 146 20 is_stmt 1 discriminator 1 view .LVU179
 147:C:/MinGW/msys/1.0/esos32/src\esos_comm.c ****   au8_String[0] = '0';
 692              		.loc 1 147 3 discriminator 1 view .LVU180
 147:C:/MinGW/msys/1.0/esos32/src\esos_comm.c ****   au8_String[0] = '0';
 693              		.loc 1 147 17 is_stmt 0 discriminator 1 view .LVU181
 694 0022 294E     		ldr	r6, .L62
 695 0024 3023     		movs	r3, #48
 696 0026 3370     		strb	r3, [r6]
 148:C:/MinGW/msys/1.0/esos32/src\esos_comm.c ****   u8_c = (u32_x >> 24);
 697              		.loc 1 148 3 is_stmt 1 discriminator 1 view .LVU182
 148:C:/MinGW/msys/1.0/esos32/src\esos_comm.c ****   u8_c = (u32_x >> 24);
 698              		.loc 1 148 17 is_stmt 0 discriminator 1 view .LVU183
 699 0028 7823     		movs	r3, #120
 700 002a 7370     		strb	r3, [r6, #1]
 149:C:/MinGW/msys/1.0/esos32/src\esos_comm.c ****   au8_String[2] = __esos_u8_GetMSBHexCharFromUint8(u8_c);
 701              		.loc 1 149 3 is_stmt 1 discriminator 1 view .LVU184
 149:C:/MinGW/msys/1.0/esos32/src\esos_comm.c ****   au8_String[2] = __esos_u8_GetMSBHexCharFromUint8(u8_c);
 702              		.loc 1 149 8 is_stmt 0 discriminator 1 view .LVU185
 703 002c 0F0E     		lsrs	r7, r1, #24
 150:C:/MinGW/msys/1.0/esos32/src\esos_comm.c ****   au8_String[3] = __esos_u8_GetLSBHexCharFromUint8(u8_c);
 704              		.loc 1 150 3 is_stmt 1 discriminator 1 view .LVU186
 150:C:/MinGW/msys/1.0/esos32/src\esos_comm.c ****   au8_String[3] = __esos_u8_GetLSBHexCharFromUint8(u8_c);
 705              		.loc 1 150 19 is_stmt 0 discriminator 1 view .LVU187
 706 002e 3846     		mov	r0, r7
 707              	.LVL40:
 150:C:/MinGW/msys/1.0/esos32/src\esos_comm.c ****   au8_String[3] = __esos_u8_GetLSBHexCharFromUint8(u8_c);
 708              		.loc 1 150 19 discriminator 1 view .LVU188
 709 0030 FFF7FEFF 		bl	__esos_u8_GetMSBHexCharFromUint8
 710              	.LVL41:
 150:C:/MinGW/msys/1.0/esos32/src\esos_comm.c ****   au8_String[3] = __esos_u8_GetLSBHexCharFromUint8(u8_c);
 711              		.loc 1 150 17 discriminator 1 view .LVU189
ARM GAS  C:\Users\Travis\AppData\Local\Temp\cci1JC9h.s 			page 18


 712 0034 B070     		strb	r0, [r6, #2]
 151:C:/MinGW/msys/1.0/esos32/src\esos_comm.c ****   u8_c = (u32_x >> 16);
 713              		.loc 1 151 3 is_stmt 1 discriminator 1 view .LVU190
 151:C:/MinGW/msys/1.0/esos32/src\esos_comm.c ****   u8_c = (u32_x >> 16);
 714              		.loc 1 151 19 is_stmt 0 discriminator 1 view .LVU191
 715 0036 3846     		mov	r0, r7
 716 0038 FFF7FEFF 		bl	__esos_u8_GetLSBHexCharFromUint8
 717              	.LVL42:
 151:C:/MinGW/msys/1.0/esos32/src\esos_comm.c ****   u8_c = (u32_x >> 16);
 718              		.loc 1 151 17 discriminator 1 view .LVU192
 719 003c F070     		strb	r0, [r6, #3]
 152:C:/MinGW/msys/1.0/esos32/src\esos_comm.c ****   au8_String[4] = __esos_u8_GetMSBHexCharFromUint8(u8_c);
 720              		.loc 1 152 3 is_stmt 1 discriminator 1 view .LVU193
 152:C:/MinGW/msys/1.0/esos32/src\esos_comm.c ****   au8_String[4] = __esos_u8_GetMSBHexCharFromUint8(u8_c);
 721              		.loc 1 152 8 is_stmt 0 discriminator 1 view .LVU194
 722 003e C5F30747 		ubfx	r7, r5, #16, #8
 153:C:/MinGW/msys/1.0/esos32/src\esos_comm.c ****   au8_String[5] = __esos_u8_GetLSBHexCharFromUint8(u8_c);
 723              		.loc 1 153 3 is_stmt 1 discriminator 1 view .LVU195
 153:C:/MinGW/msys/1.0/esos32/src\esos_comm.c ****   au8_String[5] = __esos_u8_GetLSBHexCharFromUint8(u8_c);
 724              		.loc 1 153 19 is_stmt 0 discriminator 1 view .LVU196
 725 0042 3846     		mov	r0, r7
 726 0044 FFF7FEFF 		bl	__esos_u8_GetMSBHexCharFromUint8
 727              	.LVL43:
 153:C:/MinGW/msys/1.0/esos32/src\esos_comm.c ****   au8_String[5] = __esos_u8_GetLSBHexCharFromUint8(u8_c);
 728              		.loc 1 153 17 discriminator 1 view .LVU197
 729 0048 3071     		strb	r0, [r6, #4]
 154:C:/MinGW/msys/1.0/esos32/src\esos_comm.c ****   u8_c = (u32_x >> 8);
 730              		.loc 1 154 3 is_stmt 1 discriminator 1 view .LVU198
 154:C:/MinGW/msys/1.0/esos32/src\esos_comm.c ****   u8_c = (u32_x >> 8);
 731              		.loc 1 154 19 is_stmt 0 discriminator 1 view .LVU199
 732 004a 3846     		mov	r0, r7
 733 004c FFF7FEFF 		bl	__esos_u8_GetLSBHexCharFromUint8
 734              	.LVL44:
 154:C:/MinGW/msys/1.0/esos32/src\esos_comm.c ****   u8_c = (u32_x >> 8);
 735              		.loc 1 154 17 discriminator 1 view .LVU200
 736 0050 7071     		strb	r0, [r6, #5]
 155:C:/MinGW/msys/1.0/esos32/src\esos_comm.c ****   au8_String[6] = __esos_u8_GetMSBHexCharFromUint8(u8_c);
 737              		.loc 1 155 3 is_stmt 1 discriminator 1 view .LVU201
 155:C:/MinGW/msys/1.0/esos32/src\esos_comm.c ****   au8_String[6] = __esos_u8_GetMSBHexCharFromUint8(u8_c);
 738              		.loc 1 155 8 is_stmt 0 discriminator 1 view .LVU202
 739 0052 C5F30727 		ubfx	r7, r5, #8, #8
 156:C:/MinGW/msys/1.0/esos32/src\esos_comm.c ****   au8_String[7] = __esos_u8_GetLSBHexCharFromUint8(u8_c);
 740              		.loc 1 156 3 is_stmt 1 discriminator 1 view .LVU203
 156:C:/MinGW/msys/1.0/esos32/src\esos_comm.c ****   au8_String[7] = __esos_u8_GetLSBHexCharFromUint8(u8_c);
 741              		.loc 1 156 19 is_stmt 0 discriminator 1 view .LVU204
 742 0056 3846     		mov	r0, r7
 743 0058 FFF7FEFF 		bl	__esos_u8_GetMSBHexCharFromUint8
 744              	.LVL45:
 156:C:/MinGW/msys/1.0/esos32/src\esos_comm.c ****   au8_String[7] = __esos_u8_GetLSBHexCharFromUint8(u8_c);
 745              		.loc 1 156 17 discriminator 1 view .LVU205
 746 005c B071     		strb	r0, [r6, #6]
 157:C:/MinGW/msys/1.0/esos32/src\esos_comm.c ****   u8_c = u32_x;
 747              		.loc 1 157 3 is_stmt 1 discriminator 1 view .LVU206
 157:C:/MinGW/msys/1.0/esos32/src\esos_comm.c ****   u8_c = u32_x;
 748              		.loc 1 157 19 is_stmt 0 discriminator 1 view .LVU207
 749 005e 3846     		mov	r0, r7
 750 0060 FFF7FEFF 		bl	__esos_u8_GetLSBHexCharFromUint8
ARM GAS  C:\Users\Travis\AppData\Local\Temp\cci1JC9h.s 			page 19


 751              	.LVL46:
 157:C:/MinGW/msys/1.0/esos32/src\esos_comm.c ****   u8_c = u32_x;
 752              		.loc 1 157 17 discriminator 1 view .LVU208
 753 0064 F071     		strb	r0, [r6, #7]
 158:C:/MinGW/msys/1.0/esos32/src\esos_comm.c ****   au8_String[8] = __esos_u8_GetMSBHexCharFromUint8(u8_c);
 754              		.loc 1 158 3 is_stmt 1 discriminator 1 view .LVU209
 158:C:/MinGW/msys/1.0/esos32/src\esos_comm.c ****   au8_String[8] = __esos_u8_GetMSBHexCharFromUint8(u8_c);
 755              		.loc 1 158 8 is_stmt 0 discriminator 1 view .LVU210
 756 0066 EDB2     		uxtb	r5, r5
 757              	.LVL47:
 159:C:/MinGW/msys/1.0/esos32/src\esos_comm.c ****   au8_String[9] = __esos_u8_GetLSBHexCharFromUint8(u8_c);
 758              		.loc 1 159 3 is_stmt 1 discriminator 1 view .LVU211
 159:C:/MinGW/msys/1.0/esos32/src\esos_comm.c ****   au8_String[9] = __esos_u8_GetLSBHexCharFromUint8(u8_c);
 759              		.loc 1 159 19 is_stmt 0 discriminator 1 view .LVU212
 760 0068 2846     		mov	r0, r5
 761 006a FFF7FEFF 		bl	__esos_u8_GetMSBHexCharFromUint8
 762              	.LVL48:
 159:C:/MinGW/msys/1.0/esos32/src\esos_comm.c ****   au8_String[9] = __esos_u8_GetLSBHexCharFromUint8(u8_c);
 763              		.loc 1 159 17 discriminator 1 view .LVU213
 764 006e 3072     		strb	r0, [r6, #8]
 160:C:/MinGW/msys/1.0/esos32/src\esos_comm.c ****   au8_String[10] = 0;
 765              		.loc 1 160 3 is_stmt 1 discriminator 1 view .LVU214
 160:C:/MinGW/msys/1.0/esos32/src\esos_comm.c ****   au8_String[10] = 0;
 766              		.loc 1 160 19 is_stmt 0 discriminator 1 view .LVU215
 767 0070 2846     		mov	r0, r5
 768 0072 FFF7FEFF 		bl	__esos_u8_GetLSBHexCharFromUint8
 769              	.LVL49:
 160:C:/MinGW/msys/1.0/esos32/src\esos_comm.c ****   au8_String[10] = 0;
 770              		.loc 1 160 17 discriminator 1 view .LVU216
 771 0076 7072     		strb	r0, [r6, #9]
 161:C:/MinGW/msys/1.0/esos32/src\esos_comm.c ****   u8_c = 0;
 772              		.loc 1 161 3 is_stmt 1 discriminator 1 view .LVU217
 161:C:/MinGW/msys/1.0/esos32/src\esos_comm.c ****   u8_c = 0;
 773              		.loc 1 161 18 is_stmt 0 discriminator 1 view .LVU218
 774 0078 0023     		movs	r3, #0
 775 007a B372     		strb	r3, [r6, #10]
 162:C:/MinGW/msys/1.0/esos32/src\esos_comm.c **** 
 776              		.loc 1 162 3 is_stmt 1 discriminator 1 view .LVU219
 164:C:/MinGW/msys/1.0/esos32/src\esos_comm.c ****   __esos_CB_WriteUINT8Buffer( __pst_CB_Tx, &au8_String[0], 10 );
 777              		.loc 1 164 3 discriminator 1 view .LVU220
 164:C:/MinGW/msys/1.0/esos32/src\esos_comm.c ****   __esos_CB_WriteUINT8Buffer( __pst_CB_Tx, &au8_String[0], 10 );
 778              		.loc 1 164 3 discriminator 1 view .LVU221
 779 007c A423     		movs	r3, #164
 780 007e 2380     		strh	r3, [r4]	@ movhi
 781              	.L54:
 164:C:/MinGW/msys/1.0/esos32/src\esos_comm.c ****   __esos_CB_WriteUINT8Buffer( __pst_CB_Tx, &au8_String[0], 10 );
 782              		.loc 1 164 3 discriminator 1 view .LVU222
 164:C:/MinGW/msys/1.0/esos32/src\esos_comm.c ****   __esos_CB_WriteUINT8Buffer( __pst_CB_Tx, &au8_String[0], 10 );
 783              		.loc 1 164 3 discriminator 1 view .LVU223
 784 0080 A378     		ldrb	r3, [r4, #2]	@ zero_extendqisi2
 785 0082 13F00400 		ands	r0, r3, #4
 786 0086 16D1     		bne	.L61
 164:C:/MinGW/msys/1.0/esos32/src\esos_comm.c ****   __esos_CB_WriteUINT8Buffer( __pst_CB_Tx, &au8_String[0], 10 );
 787              		.loc 1 164 3 discriminator 3 view .LVU224
 788 0088 104A     		ldr	r2, .L62+4
 789 008a 1168     		ldr	r1, [r2]
 790 008c 0A88     		ldrh	r2, [r1]
ARM GAS  C:\Users\Travis\AppData\Local\Temp\cci1JC9h.s 			page 20


 791 008e 8988     		ldrh	r1, [r1, #4]
 792 0090 521A     		subs	r2, r2, r1
 793 0092 092A     		cmp	r2, #9
 794 0094 13DD     		ble	.L58
 164:C:/MinGW/msys/1.0/esos32/src\esos_comm.c ****   __esos_CB_WriteUINT8Buffer( __pst_CB_Tx, &au8_String[0], 10 );
 795              		.loc 1 164 3 discriminator 4 view .LVU225
 796 0096 23F00103 		bic	r3, r3, #1
 797 009a A370     		strb	r3, [r4, #2]
 798              	.L59:
 164:C:/MinGW/msys/1.0/esos32/src\esos_comm.c ****   __esos_CB_WriteUINT8Buffer( __pst_CB_Tx, &au8_String[0], 10 );
 799              		.loc 1 164 3 discriminator 7 view .LVU226
 800 009c A378     		ldrb	r3, [r4, #2]	@ zero_extendqisi2
 801 009e 13F0010F 		tst	r3, #1
 802 00a2 BCD1     		bne	.L57
 164:C:/MinGW/msys/1.0/esos32/src\esos_comm.c ****   __esos_CB_WriteUINT8Buffer( __pst_CB_Tx, &au8_String[0], 10 );
 803              		.loc 1 164 3 discriminator 9 view .LVU227
 165:C:/MinGW/msys/1.0/esos32/src\esos_comm.c ****   // signal the hardware that a xfer should be started if
 804              		.loc 1 165 3 discriminator 9 view .LVU228
 805 00a4 0A22     		movs	r2, #10
 806 00a6 0849     		ldr	r1, .L62
 807 00a8 084B     		ldr	r3, .L62+4
 808 00aa 1868     		ldr	r0, [r3]
 809 00ac FFF7FEFF 		bl	__esos_CB_WriteUINT8Buffer
 810              	.LVL50:
 168:C:/MinGW/msys/1.0/esos32/src\esos_comm.c ****   ESOS_TASK_END();
 811              		.loc 1 168 3 discriminator 9 view .LVU229
 812 00b0 FFF7FEFF 		bl	__esos_hw_signal_start_tx
 813              	.LVL51:
 814 00b4 AEE7     		b	.L55
 815              	.L61:
 164:C:/MinGW/msys/1.0/esos32/src\esos_comm.c ****   __esos_CB_WriteUINT8Buffer( __pst_CB_Tx, &au8_String[0], 10 );
 816              		.loc 1 164 3 discriminator 2 view .LVU230
 817 00b6 0423     		movs	r3, #4
 818 00b8 A370     		strb	r3, [r4, #2]
 164:C:/MinGW/msys/1.0/esos32/src\esos_comm.c ****   __esos_CB_WriteUINT8Buffer( __pst_CB_Tx, &au8_String[0], 10 );
 819              		.loc 1 164 3 discriminator 2 view .LVU231
 820 00ba 0320     		movs	r0, #3
 821 00bc AFE7     		b	.L57
 822              	.L58:
 164:C:/MinGW/msys/1.0/esos32/src\esos_comm.c ****   __esos_CB_WriteUINT8Buffer( __pst_CB_Tx, &au8_String[0], 10 );
 823              		.loc 1 164 3 discriminator 5 view .LVU232
 824 00be 43F00103 		orr	r3, r3, #1
 825 00c2 A370     		strb	r3, [r4, #2]
 826 00c4 EAE7     		b	.L59
 827              	.L63:
 828 00c6 00BF     		.align	2
 829              	.L62:
 830 00c8 00000000 		.word	.LANCHOR5
 831 00cc 00000000 		.word	__pst_CB_Tx
 832              		.cfi_endproc
 833              	.LFE6:
 835              		.section	.text.__esos_OutCharBuffer,"ax",%progbits
 836              		.align	1
 837              		.global	__esos_OutCharBuffer
 838              		.syntax unified
 839              		.thumb
 840              		.thumb_func
ARM GAS  C:\Users\Travis\AppData\Local\Temp\cci1JC9h.s 			page 21


 841              		.fpu fpv4-sp-d16
 843              	__esos_OutCharBuffer:
 844              	.LVL52:
 845              	.LFB7:
 172:C:/MinGW/msys/1.0/esos32/src\esos_comm.c **** 
 173:C:/MinGW/msys/1.0/esos32/src\esos_comm.c **** ESOS_CHILD_TASK( __esos_OutCharBuffer, uint8_t* pu8_out, uint8_t u8_len) {
 846              		.loc 1 173 74 view -0
 847              		.cfi_startproc
 848              		@ args = 0, pretend = 0, frame = 0
 849              		@ frame_needed = 0, uses_anonymous_args = 0
 850              		.loc 1 173 74 is_stmt 0 view .LVU234
 851 0000 70B5     		push	{r4, r5, r6, lr}
 852              	.LCFI5:
 853              		.cfi_def_cfa_offset 16
 854              		.cfi_offset 4, -16
 855              		.cfi_offset 5, -12
 856              		.cfi_offset 6, -8
 857              		.cfi_offset 14, -4
 858 0002 0446     		mov	r4, r0
 174:C:/MinGW/msys/1.0/esos32/src\esos_comm.c ****   ESOS_TASK_BEGIN();
 859              		.loc 1 174 3 is_stmt 1 view .LVU235
 860 0004 8378     		ldrb	r3, [r0, #2]	@ zero_extendqisi2
 861 0006 43F08003 		orr	r3, r3, #128
 862 000a 8370     		strb	r3, [r0, #2]
 863              		.loc 1 174 3 view .LVU236
 864 000c 0088     		ldrh	r0, [r0]
 865              	.LVL53:
 866              		.loc 1 174 3 is_stmt 0 view .LVU237
 867 000e 38B1     		cbz	r0, .L65
 868 0010 AF28     		cmp	r0, #175
 869 0012 07D0     		beq	.L66
 870              	.LVL54:
 871              	.L67:
 175:C:/MinGW/msys/1.0/esos32/src\esos_comm.c ****   ESOS_TASK_WAIT_UNTIL_CB_HAS_AVAILABLE_AT_LEAST( __pst_CB_Tx, u8_len);
 176:C:/MinGW/msys/1.0/esos32/src\esos_comm.c ****   __esos_CB_WriteUINT8Buffer( __pst_CB_Tx, pu8_out, u8_len );
 177:C:/MinGW/msys/1.0/esos32/src\esos_comm.c ****   // signal the hardware that a xfer should be started if
 178:C:/MinGW/msys/1.0/esos32/src\esos_comm.c ****   // not already ongoing
 179:C:/MinGW/msys/1.0/esos32/src\esos_comm.c ****   __esos_hw_signal_start_tx();
 180:C:/MinGW/msys/1.0/esos32/src\esos_comm.c ****   ESOS_TASK_END();
 872              		.loc 1 180 3 is_stmt 1 view .LVU238
 873              		.loc 1 180 3 view .LVU239
 874 0014 0823     		movs	r3, #8
 875 0016 A370     		strb	r3, [r4, #2]
 876              		.loc 1 180 3 view .LVU240
 877 0018 0023     		movs	r3, #0
 878 001a 2380     		strh	r3, [r4]	@ movhi
 879              		.loc 1 180 3 view .LVU241
 880              		.loc 1 180 3 view .LVU242
 881              		.loc 1 180 3 view .LVU243
 882 001c 0320     		movs	r0, #3
 883              	.L69:
 884              		.loc 1 180 18 discriminator 1 view .LVU244
 181:C:/MinGW/msys/1.0/esos32/src\esos_comm.c **** } // end __esos_OutCharBuffer
 885              		.loc 1 181 1 is_stmt 0 discriminator 1 view .LVU245
 886 001e 70BD     		pop	{r4, r5, r6, pc}
 887              	.LVL55:
 888              	.L65:
ARM GAS  C:\Users\Travis\AppData\Local\Temp\cci1JC9h.s 			page 22


 174:C:/MinGW/msys/1.0/esos32/src\esos_comm.c ****   ESOS_TASK_BEGIN();
 889              		.loc 1 174 20 is_stmt 1 discriminator 1 view .LVU246
 175:C:/MinGW/msys/1.0/esos32/src\esos_comm.c ****   ESOS_TASK_WAIT_UNTIL_CB_HAS_AVAILABLE_AT_LEAST( __pst_CB_Tx, u8_len);
 890              		.loc 1 175 3 discriminator 1 view .LVU247
 175:C:/MinGW/msys/1.0/esos32/src\esos_comm.c ****   ESOS_TASK_WAIT_UNTIL_CB_HAS_AVAILABLE_AT_LEAST( __pst_CB_Tx, u8_len);
 891              		.loc 1 175 3 discriminator 1 view .LVU248
 892 0020 AF20     		movs	r0, #175
 893 0022 2080     		strh	r0, [r4]	@ movhi
 894              	.L66:
 175:C:/MinGW/msys/1.0/esos32/src\esos_comm.c ****   ESOS_TASK_WAIT_UNTIL_CB_HAS_AVAILABLE_AT_LEAST( __pst_CB_Tx, u8_len);
 895              		.loc 1 175 3 discriminator 1 view .LVU249
 175:C:/MinGW/msys/1.0/esos32/src\esos_comm.c ****   ESOS_TASK_WAIT_UNTIL_CB_HAS_AVAILABLE_AT_LEAST( __pst_CB_Tx, u8_len);
 896              		.loc 1 175 3 discriminator 1 view .LVU250
 897 0024 13F00400 		ands	r0, r3, #4
 898 0028 14D1     		bne	.L73
 175:C:/MinGW/msys/1.0/esos32/src\esos_comm.c ****   ESOS_TASK_WAIT_UNTIL_CB_HAS_AVAILABLE_AT_LEAST( __pst_CB_Tx, u8_len);
 899              		.loc 1 175 3 discriminator 3 view .LVU251
 900 002a 0E4D     		ldr	r5, .L74
 901 002c 2E68     		ldr	r6, [r5]
 902 002e 3588     		ldrh	r5, [r6]
 903 0030 B688     		ldrh	r6, [r6, #4]
 904 0032 AD1B     		subs	r5, r5, r6
 905 0034 9542     		cmp	r5, r2
 906 0036 11DB     		blt	.L70
 175:C:/MinGW/msys/1.0/esos32/src\esos_comm.c ****   ESOS_TASK_WAIT_UNTIL_CB_HAS_AVAILABLE_AT_LEAST( __pst_CB_Tx, u8_len);
 907              		.loc 1 175 3 discriminator 4 view .LVU252
 908 0038 23F00103 		bic	r3, r3, #1
 909 003c A370     		strb	r3, [r4, #2]
 910              	.L71:
 175:C:/MinGW/msys/1.0/esos32/src\esos_comm.c ****   ESOS_TASK_WAIT_UNTIL_CB_HAS_AVAILABLE_AT_LEAST( __pst_CB_Tx, u8_len);
 911              		.loc 1 175 3 discriminator 7 view .LVU253
 912 003e A378     		ldrb	r3, [r4, #2]	@ zero_extendqisi2
 913 0040 13F0010F 		tst	r3, #1
 914 0044 EBD1     		bne	.L69
 175:C:/MinGW/msys/1.0/esos32/src\esos_comm.c ****   ESOS_TASK_WAIT_UNTIL_CB_HAS_AVAILABLE_AT_LEAST( __pst_CB_Tx, u8_len);
 915              		.loc 1 175 3 discriminator 9 view .LVU254
 176:C:/MinGW/msys/1.0/esos32/src\esos_comm.c ****   // signal the hardware that a xfer should be started if
 916              		.loc 1 176 3 discriminator 9 view .LVU255
 917 0046 074B     		ldr	r3, .L74
 918 0048 1868     		ldr	r0, [r3]
 919 004a FFF7FEFF 		bl	__esos_CB_WriteUINT8Buffer
 920              	.LVL56:
 179:C:/MinGW/msys/1.0/esos32/src\esos_comm.c ****   ESOS_TASK_END();
 921              		.loc 1 179 3 discriminator 9 view .LVU256
 922 004e FFF7FEFF 		bl	__esos_hw_signal_start_tx
 923              	.LVL57:
 924 0052 DFE7     		b	.L67
 925              	.LVL58:
 926              	.L73:
 175:C:/MinGW/msys/1.0/esos32/src\esos_comm.c ****   __esos_CB_WriteUINT8Buffer( __pst_CB_Tx, pu8_out, u8_len );
 927              		.loc 1 175 3 discriminator 2 view .LVU257
 928 0054 0423     		movs	r3, #4
 929 0056 A370     		strb	r3, [r4, #2]
 175:C:/MinGW/msys/1.0/esos32/src\esos_comm.c ****   __esos_CB_WriteUINT8Buffer( __pst_CB_Tx, pu8_out, u8_len );
 930              		.loc 1 175 3 discriminator 2 view .LVU258
 931 0058 0320     		movs	r0, #3
 932 005a E0E7     		b	.L69
ARM GAS  C:\Users\Travis\AppData\Local\Temp\cci1JC9h.s 			page 23


 933              	.L70:
 175:C:/MinGW/msys/1.0/esos32/src\esos_comm.c ****   __esos_CB_WriteUINT8Buffer( __pst_CB_Tx, pu8_out, u8_len );
 934              		.loc 1 175 3 discriminator 5 view .LVU259
 935 005c 43F00103 		orr	r3, r3, #1
 936 0060 A370     		strb	r3, [r4, #2]
 937 0062 ECE7     		b	.L71
 938              	.L75:
 939              		.align	2
 940              	.L74:
 941 0064 00000000 		.word	__pst_CB_Tx
 942              		.cfi_endproc
 943              	.LFE7:
 945              		.section	.text.__esos_OutString,"ax",%progbits
 946              		.align	1
 947              		.global	__esos_OutString
 948              		.syntax unified
 949              		.thumb
 950              		.thumb_func
 951              		.fpu fpv4-sp-d16
 953              	__esos_OutString:
 954              	.LVL59:
 955              	.LFB8:
 182:C:/MinGW/msys/1.0/esos32/src\esos_comm.c **** 
 183:C:/MinGW/msys/1.0/esos32/src\esos_comm.c **** 
 184:C:/MinGW/msys/1.0/esos32/src\esos_comm.c **** ESOS_CHILD_TASK( __esos_OutString, char* psz_out ) {
 956              		.loc 1 184 52 view -0
 957              		.cfi_startproc
 958              		@ args = 0, pretend = 0, frame = 0
 959              		@ frame_needed = 0, uses_anonymous_args = 0
 960              		.loc 1 184 52 is_stmt 0 view .LVU261
 961 0000 10B5     		push	{r4, lr}
 962              	.LCFI6:
 963              		.cfi_def_cfa_offset 8
 964              		.cfi_offset 4, -8
 965              		.cfi_offset 14, -4
 966 0002 0446     		mov	r4, r0
 185:C:/MinGW/msys/1.0/esos32/src\esos_comm.c ****   static char*        psz_local;
 967              		.loc 1 185 3 is_stmt 1 view .LVU262
 186:C:/MinGW/msys/1.0/esos32/src\esos_comm.c **** 
 187:C:/MinGW/msys/1.0/esos32/src\esos_comm.c ****   ESOS_TASK_BEGIN();
 968              		.loc 1 187 3 view .LVU263
 969 0004 8378     		ldrb	r3, [r0, #2]	@ zero_extendqisi2
 970 0006 63F07F03 		orn	r3, r3, #127
 971 000a 8370     		strb	r3, [r0, #2]
 972              		.loc 1 187 3 view .LVU264
 973 000c 0388     		ldrh	r3, [r0]
 974 000e 3BB1     		cbz	r3, .L77
 975 0010 BF2B     		cmp	r3, #191
 976 0012 0ED0     		beq	.L78
 977              	.LVL60:
 978              	.L79:
 188:C:/MinGW/msys/1.0/esos32/src\esos_comm.c ****   psz_local = psz_out;
 189:C:/MinGW/msys/1.0/esos32/src\esos_comm.c ****   while ( *psz_local ) {
 190:C:/MinGW/msys/1.0/esos32/src\esos_comm.c ****     // wait for room in the TX CB to appear
 191:C:/MinGW/msys/1.0/esos32/src\esos_comm.c ****     ESOS_TASK_WAIT_WHILE_CB_IS_FULL( __pst_CB_Tx );
 192:C:/MinGW/msys/1.0/esos32/src\esos_comm.c ****     // write the data in the TX CB
 193:C:/MinGW/msys/1.0/esos32/src\esos_comm.c ****     __esos_CB_WriteUINT8( __pst_CB_Tx, *psz_local++ );
ARM GAS  C:\Users\Travis\AppData\Local\Temp\cci1JC9h.s 			page 24


 194:C:/MinGW/msys/1.0/esos32/src\esos_comm.c ****     __esos_hw_signal_start_tx();
 195:C:/MinGW/msys/1.0/esos32/src\esos_comm.c ****   } //end while()
 196:C:/MinGW/msys/1.0/esos32/src\esos_comm.c ****   ESOS_TASK_END();
 979              		.loc 1 196 3 view .LVU265
 980              		.loc 1 196 3 view .LVU266
 981 0014 0823     		movs	r3, #8
 982 0016 A370     		strb	r3, [r4, #2]
 983              		.loc 1 196 3 view .LVU267
 984 0018 0023     		movs	r3, #0
 985 001a 2380     		strh	r3, [r4]	@ movhi
 986              		.loc 1 196 3 view .LVU268
 987              		.loc 1 196 3 view .LVU269
 988              		.loc 1 196 3 view .LVU270
 989 001c 0320     		movs	r0, #3
 990              	.L82:
 991              		.loc 1 196 18 discriminator 1 view .LVU271
 197:C:/MinGW/msys/1.0/esos32/src\esos_comm.c **** } // end __esos_OutString
 992              		.loc 1 197 1 is_stmt 0 discriminator 1 view .LVU272
 993 001e 10BD     		pop	{r4, pc}
 994              	.LVL61:
 995              	.L77:
 187:C:/MinGW/msys/1.0/esos32/src\esos_comm.c ****   psz_local = psz_out;
 996              		.loc 1 187 20 is_stmt 1 discriminator 1 view .LVU273
 188:C:/MinGW/msys/1.0/esos32/src\esos_comm.c ****   psz_local = psz_out;
 997              		.loc 1 188 3 discriminator 1 view .LVU274
 188:C:/MinGW/msys/1.0/esos32/src\esos_comm.c ****   psz_local = psz_out;
 998              		.loc 1 188 13 is_stmt 0 discriminator 1 view .LVU275
 999 0020 164B     		ldr	r3, .L88
 1000 0022 1960     		str	r1, [r3]
 189:C:/MinGW/msys/1.0/esos32/src\esos_comm.c ****     // wait for room in the TX CB to appear
 1001              		.loc 1 189 3 is_stmt 1 discriminator 1 view .LVU276
 1002              	.LVL62:
 1003              	.L80:
 189:C:/MinGW/msys/1.0/esos32/src\esos_comm.c ****     // wait for room in the TX CB to appear
 1004              		.loc 1 189 9 view .LVU277
 189:C:/MinGW/msys/1.0/esos32/src\esos_comm.c ****     // wait for room in the TX CB to appear
 1005              		.loc 1 189 11 is_stmt 0 view .LVU278
 1006 0024 154B     		ldr	r3, .L88
 1007 0026 1B68     		ldr	r3, [r3]
 1008 0028 1B78     		ldrb	r3, [r3]	@ zero_extendqisi2
 189:C:/MinGW/msys/1.0/esos32/src\esos_comm.c ****     // wait for room in the TX CB to appear
 1009              		.loc 1 189 9 view .LVU279
 1010 002a 002B     		cmp	r3, #0
 1011 002c F2D0     		beq	.L79
 191:C:/MinGW/msys/1.0/esos32/src\esos_comm.c ****     // write the data in the TX CB
 1012              		.loc 1 191 5 is_stmt 1 view .LVU280
 191:C:/MinGW/msys/1.0/esos32/src\esos_comm.c ****     // write the data in the TX CB
 1013              		.loc 1 191 5 view .LVU281
 1014 002e BF23     		movs	r3, #191
 1015 0030 2380     		strh	r3, [r4]	@ movhi
 1016              	.L78:
 191:C:/MinGW/msys/1.0/esos32/src\esos_comm.c ****     // write the data in the TX CB
 1017              		.loc 1 191 5 discriminator 1 view .LVU282
 191:C:/MinGW/msys/1.0/esos32/src\esos_comm.c ****     // write the data in the TX CB
 1018              		.loc 1 191 5 discriminator 1 view .LVU283
 1019 0032 A378     		ldrb	r3, [r4, #2]	@ zero_extendqisi2
 1020 0034 13F00400 		ands	r0, r3, #4
ARM GAS  C:\Users\Travis\AppData\Local\Temp\cci1JC9h.s 			page 25


 1021 0038 18D1     		bne	.L87
 191:C:/MinGW/msys/1.0/esos32/src\esos_comm.c ****     // write the data in the TX CB
 1022              		.loc 1 191 5 discriminator 3 view .LVU284
 1023 003a 114A     		ldr	r2, .L88+4
 1024 003c 1268     		ldr	r2, [r2]
 1025 003e 1188     		ldrh	r1, [r2]
 1026 0040 9288     		ldrh	r2, [r2, #4]
 1027 0042 9142     		cmp	r1, r2
 1028 0044 16D0     		beq	.L83
 191:C:/MinGW/msys/1.0/esos32/src\esos_comm.c ****     // write the data in the TX CB
 1029              		.loc 1 191 5 discriminator 4 view .LVU285
 1030 0046 23F00103 		bic	r3, r3, #1
 1031 004a A370     		strb	r3, [r4, #2]
 1032              	.L84:
 191:C:/MinGW/msys/1.0/esos32/src\esos_comm.c ****     // write the data in the TX CB
 1033              		.loc 1 191 5 discriminator 7 view .LVU286
 1034 004c A378     		ldrb	r3, [r4, #2]	@ zero_extendqisi2
 1035 004e 13F0010F 		tst	r3, #1
 1036 0052 E4D1     		bne	.L82
 191:C:/MinGW/msys/1.0/esos32/src\esos_comm.c ****     // write the data in the TX CB
 1037              		.loc 1 191 5 discriminator 9 view .LVU287
 193:C:/MinGW/msys/1.0/esos32/src\esos_comm.c ****     __esos_hw_signal_start_tx();
 1038              		.loc 1 193 5 discriminator 9 view .LVU288
 193:C:/MinGW/msys/1.0/esos32/src\esos_comm.c ****     __esos_hw_signal_start_tx();
 1039              		.loc 1 193 50 is_stmt 0 discriminator 9 view .LVU289
 1040 0054 094A     		ldr	r2, .L88
 1041 0056 1368     		ldr	r3, [r2]
 1042 0058 591C     		adds	r1, r3, #1
 1043 005a 1160     		str	r1, [r2]
 193:C:/MinGW/msys/1.0/esos32/src\esos_comm.c ****     __esos_hw_signal_start_tx();
 1044              		.loc 1 193 5 discriminator 9 view .LVU290
 1045 005c 1978     		ldrb	r1, [r3]	@ zero_extendqisi2
 1046 005e 084B     		ldr	r3, .L88+4
 1047 0060 1868     		ldr	r0, [r3]
 1048 0062 FFF7FEFF 		bl	__esos_CB_WriteUINT8
 1049              	.LVL63:
 194:C:/MinGW/msys/1.0/esos32/src\esos_comm.c ****   } //end while()
 1050              		.loc 1 194 5 is_stmt 1 discriminator 9 view .LVU291
 1051 0066 FFF7FEFF 		bl	__esos_hw_signal_start_tx
 1052              	.LVL64:
 1053 006a DBE7     		b	.L80
 1054              	.L87:
 191:C:/MinGW/msys/1.0/esos32/src\esos_comm.c ****     // write the data in the TX CB
 1055              		.loc 1 191 5 discriminator 2 view .LVU292
 1056 006c 0423     		movs	r3, #4
 1057 006e A370     		strb	r3, [r4, #2]
 191:C:/MinGW/msys/1.0/esos32/src\esos_comm.c ****     // write the data in the TX CB
 1058              		.loc 1 191 5 discriminator 2 view .LVU293
 1059 0070 0320     		movs	r0, #3
 1060 0072 D4E7     		b	.L82
 1061              	.L83:
 191:C:/MinGW/msys/1.0/esos32/src\esos_comm.c ****     // write the data in the TX CB
 1062              		.loc 1 191 5 discriminator 5 view .LVU294
 1063 0074 43F00103 		orr	r3, r3, #1
 1064 0078 A370     		strb	r3, [r4, #2]
 1065 007a E7E7     		b	.L84
 1066              	.L89:
ARM GAS  C:\Users\Travis\AppData\Local\Temp\cci1JC9h.s 			page 26


 1067              		.align	2
 1068              	.L88:
 1069 007c 00000000 		.word	.LANCHOR6
 1070 0080 00000000 		.word	__pst_CB_Tx
 1071              		.cfi_endproc
 1072              	.LFE8:
 1074              		.section	.text.__esos_getBuffer,"ax",%progbits
 1075              		.align	1
 1076              		.global	__esos_getBuffer
 1077              		.syntax unified
 1078              		.thumb
 1079              		.thumb_func
 1080              		.fpu fpv4-sp-d16
 1082              	__esos_getBuffer:
 1083              	.LVL65:
 1084              	.LFB9:
 198:C:/MinGW/msys/1.0/esos32/src\esos_comm.c **** 
 199:C:/MinGW/msys/1.0/esos32/src\esos_comm.c **** 
 200:C:/MinGW/msys/1.0/esos32/src\esos_comm.c **** /* ***********************************
 201:C:/MinGW/msys/1.0/esos32/src\esos_comm.c ****  *  INCOMING COMM CHILD TASKS
 202:C:/MinGW/msys/1.0/esos32/src\esos_comm.c ****  *************************************
 203:C:/MinGW/msys/1.0/esos32/src\esos_comm.c **** */
 204:C:/MinGW/msys/1.0/esos32/src\esos_comm.c **** ESOS_CHILD_TASK( __esos_getBuffer, uint8_t* pau8_buff, uint8_t u8_size) {
 1085              		.loc 1 204 73 view -0
 1086              		.cfi_startproc
 1087              		@ args = 0, pretend = 0, frame = 0
 1088              		@ frame_needed = 0, uses_anonymous_args = 0
 1089              		.loc 1 204 73 is_stmt 0 view .LVU296
 1090 0000 F8B5     		push	{r3, r4, r5, r6, r7, lr}
 1091              	.LCFI7:
 1092              		.cfi_def_cfa_offset 24
 1093              		.cfi_offset 3, -24
 1094              		.cfi_offset 4, -20
 1095              		.cfi_offset 5, -16
 1096              		.cfi_offset 6, -12
 1097              		.cfi_offset 7, -8
 1098              		.cfi_offset 14, -4
 1099 0002 0446     		mov	r4, r0
 205:C:/MinGW/msys/1.0/esos32/src\esos_comm.c ****   static uint8_t        u8_i;
 1100              		.loc 1 205 3 is_stmt 1 view .LVU297
 206:C:/MinGW/msys/1.0/esos32/src\esos_comm.c ****   static uint8_t*       pau8_LocalPtr;
 1101              		.loc 1 206 3 view .LVU298
 207:C:/MinGW/msys/1.0/esos32/src\esos_comm.c ****   static uint8_t        u8_LocalSize;
 1102              		.loc 1 207 3 view .LVU299
 208:C:/MinGW/msys/1.0/esos32/src\esos_comm.c **** 
 209:C:/MinGW/msys/1.0/esos32/src\esos_comm.c ****   ESOS_TASK_BEGIN();
 1103              		.loc 1 209 3 view .LVU300
 1104 0004 8378     		ldrb	r3, [r0, #2]	@ zero_extendqisi2
 1105 0006 63F07F03 		orn	r3, r3, #127
 1106 000a 8370     		strb	r3, [r0, #2]
 1107              		.loc 1 209 3 view .LVU301
 1108 000c 0388     		ldrh	r3, [r0]
 1109 000e 3BB1     		cbz	r3, .L91
 1110 0010 D72B     		cmp	r3, #215
 1111 0012 14D0     		beq	.L92
 1112              	.LVL66:
 1113              	.L93:
ARM GAS  C:\Users\Travis\AppData\Local\Temp\cci1JC9h.s 			page 27


 210:C:/MinGW/msys/1.0/esos32/src\esos_comm.c ****   u8_LocalSize = u8_size;
 211:C:/MinGW/msys/1.0/esos32/src\esos_comm.c ****   pau8_LocalPtr = pau8_buff;
 212:C:/MinGW/msys/1.0/esos32/src\esos_comm.c **** 
 213:C:/MinGW/msys/1.0/esos32/src\esos_comm.c ****   for (u8_i=0; u8_i<u8_LocalSize; u8_i++) {
 214:C:/MinGW/msys/1.0/esos32/src\esos_comm.c ****     //wait for the RX character to arrive
 215:C:/MinGW/msys/1.0/esos32/src\esos_comm.c ****     ESOS_TASK_WAIT_WHILE ( __ESOS_CB_IS_EMPTY( __pst_CB_Rx ) );
 216:C:/MinGW/msys/1.0/esos32/src\esos_comm.c ****     pau8_LocalPtr[u8_i] = __esos_CB_ReadUINT8( __pst_CB_Rx );
 217:C:/MinGW/msys/1.0/esos32/src\esos_comm.c ****   } // end for(...)
 218:C:/MinGW/msys/1.0/esos32/src\esos_comm.c ****   ESOS_TASK_END();
 1114              		.loc 1 218 3 view .LVU302
 1115              		.loc 1 218 3 view .LVU303
 1116 0014 0823     		movs	r3, #8
 1117 0016 A370     		strb	r3, [r4, #2]
 1118              		.loc 1 218 3 view .LVU304
 1119 0018 0023     		movs	r3, #0
 1120 001a 2380     		strh	r3, [r4]	@ movhi
 1121              		.loc 1 218 3 view .LVU305
 1122              		.loc 1 218 3 view .LVU306
 1123              		.loc 1 218 3 view .LVU307
 1124 001c 0320     		movs	r0, #3
 1125              	.L96:
 1126              		.loc 1 218 18 discriminator 1 view .LVU308
 219:C:/MinGW/msys/1.0/esos32/src\esos_comm.c **** } // end __esos_getBuffer
 1127              		.loc 1 219 1 is_stmt 0 discriminator 1 view .LVU309
 1128 001e F8BD     		pop	{r3, r4, r5, r6, r7, pc}
 1129              	.LVL67:
 1130              	.L91:
 209:C:/MinGW/msys/1.0/esos32/src\esos_comm.c ****   u8_LocalSize = u8_size;
 1131              		.loc 1 209 20 is_stmt 1 discriminator 1 view .LVU310
 210:C:/MinGW/msys/1.0/esos32/src\esos_comm.c ****   u8_LocalSize = u8_size;
 1132              		.loc 1 210 3 discriminator 1 view .LVU311
 210:C:/MinGW/msys/1.0/esos32/src\esos_comm.c ****   u8_LocalSize = u8_size;
 1133              		.loc 1 210 16 is_stmt 0 discriminator 1 view .LVU312
 1134 0020 194B     		ldr	r3, .L102
 1135 0022 1A70     		strb	r2, [r3]
 211:C:/MinGW/msys/1.0/esos32/src\esos_comm.c **** 
 1136              		.loc 1 211 3 is_stmt 1 discriminator 1 view .LVU313
 211:C:/MinGW/msys/1.0/esos32/src\esos_comm.c **** 
 1137              		.loc 1 211 17 is_stmt 0 discriminator 1 view .LVU314
 1138 0024 194B     		ldr	r3, .L102+4
 1139 0026 1960     		str	r1, [r3]
 213:C:/MinGW/msys/1.0/esos32/src\esos_comm.c ****     //wait for the RX character to arrive
 1140              		.loc 1 213 3 is_stmt 1 discriminator 1 view .LVU315
 213:C:/MinGW/msys/1.0/esos32/src\esos_comm.c ****     //wait for the RX character to arrive
 1141              		.loc 1 213 12 is_stmt 0 discriminator 1 view .LVU316
 1142 0028 194B     		ldr	r3, .L102+8
 1143 002a 0022     		movs	r2, #0
 1144              	.LVL68:
 213:C:/MinGW/msys/1.0/esos32/src\esos_comm.c ****     //wait for the RX character to arrive
 1145              		.loc 1 213 12 discriminator 1 view .LVU317
 1146 002c 1A70     		strb	r2, [r3]
 1147              	.LVL69:
 1148              	.L94:
 213:C:/MinGW/msys/1.0/esos32/src\esos_comm.c ****     //wait for the RX character to arrive
 1149              		.loc 1 213 16 is_stmt 1 discriminator 2 view .LVU318
 213:C:/MinGW/msys/1.0/esos32/src\esos_comm.c ****     //wait for the RX character to arrive
 1150              		.loc 1 213 20 is_stmt 0 discriminator 2 view .LVU319
ARM GAS  C:\Users\Travis\AppData\Local\Temp\cci1JC9h.s 			page 28


 1151 002e 184B     		ldr	r3, .L102+8
 1152 0030 1A78     		ldrb	r2, [r3]	@ zero_extendqisi2
 1153 0032 154B     		ldr	r3, .L102
 1154 0034 1B78     		ldrb	r3, [r3]	@ zero_extendqisi2
 213:C:/MinGW/msys/1.0/esos32/src\esos_comm.c ****     //wait for the RX character to arrive
 1155              		.loc 1 213 3 discriminator 2 view .LVU320
 1156 0036 9A42     		cmp	r2, r3
 1157 0038 ECD2     		bcs	.L93
 215:C:/MinGW/msys/1.0/esos32/src\esos_comm.c ****     pau8_LocalPtr[u8_i] = __esos_CB_ReadUINT8( __pst_CB_Rx );
 1158              		.loc 1 215 5 is_stmt 1 view .LVU321
 215:C:/MinGW/msys/1.0/esos32/src\esos_comm.c ****     pau8_LocalPtr[u8_i] = __esos_CB_ReadUINT8( __pst_CB_Rx );
 1159              		.loc 1 215 5 view .LVU322
 1160 003a D723     		movs	r3, #215
 1161 003c 2380     		strh	r3, [r4]	@ movhi
 1162              	.L92:
 215:C:/MinGW/msys/1.0/esos32/src\esos_comm.c ****     pau8_LocalPtr[u8_i] = __esos_CB_ReadUINT8( __pst_CB_Rx );
 1163              		.loc 1 215 5 discriminator 1 view .LVU323
 215:C:/MinGW/msys/1.0/esos32/src\esos_comm.c ****     pau8_LocalPtr[u8_i] = __esos_CB_ReadUINT8( __pst_CB_Rx );
 1164              		.loc 1 215 5 discriminator 1 view .LVU324
 1165 003e A378     		ldrb	r3, [r4, #2]	@ zero_extendqisi2
 1166 0040 13F00400 		ands	r0, r3, #4
 1167 0044 17D1     		bne	.L101
 215:C:/MinGW/msys/1.0/esos32/src\esos_comm.c ****     pau8_LocalPtr[u8_i] = __esos_CB_ReadUINT8( __pst_CB_Rx );
 1168              		.loc 1 215 5 discriminator 3 view .LVU325
 1169 0046 134A     		ldr	r2, .L102+12
 1170 0048 1268     		ldr	r2, [r2]
 1171 004a 9288     		ldrh	r2, [r2, #4]
 1172 004c BAB1     		cbz	r2, .L97
 215:C:/MinGW/msys/1.0/esos32/src\esos_comm.c ****     pau8_LocalPtr[u8_i] = __esos_CB_ReadUINT8( __pst_CB_Rx );
 1173              		.loc 1 215 5 discriminator 4 view .LVU326
 1174 004e 23F00103 		bic	r3, r3, #1
 1175 0052 A370     		strb	r3, [r4, #2]
 1176              	.L98:
 215:C:/MinGW/msys/1.0/esos32/src\esos_comm.c ****     pau8_LocalPtr[u8_i] = __esos_CB_ReadUINT8( __pst_CB_Rx );
 1177              		.loc 1 215 5 discriminator 7 view .LVU327
 1178 0054 A378     		ldrb	r3, [r4, #2]	@ zero_extendqisi2
 1179 0056 13F0010F 		tst	r3, #1
 1180 005a E0D1     		bne	.L96
 215:C:/MinGW/msys/1.0/esos32/src\esos_comm.c ****     pau8_LocalPtr[u8_i] = __esos_CB_ReadUINT8( __pst_CB_Rx );
 1181              		.loc 1 215 5 discriminator 9 view .LVU328
 216:C:/MinGW/msys/1.0/esos32/src\esos_comm.c ****   } // end for(...)
 1182              		.loc 1 216 5 discriminator 9 view .LVU329
 216:C:/MinGW/msys/1.0/esos32/src\esos_comm.c ****   } // end for(...)
 1183              		.loc 1 216 18 is_stmt 0 discriminator 9 view .LVU330
 1184 005c 0C4D     		ldr	r5, .L102+8
 1185 005e 2E78     		ldrb	r6, [r5]	@ zero_extendqisi2
 1186 0060 0A4B     		ldr	r3, .L102+4
 1187 0062 1F68     		ldr	r7, [r3]
 216:C:/MinGW/msys/1.0/esos32/src\esos_comm.c ****   } // end for(...)
 1188              		.loc 1 216 27 discriminator 9 view .LVU331
 1189 0064 0B4B     		ldr	r3, .L102+12
 1190 0066 1868     		ldr	r0, [r3]
 1191 0068 FFF7FEFF 		bl	__esos_CB_ReadUINT8
 1192              	.LVL70:
 216:C:/MinGW/msys/1.0/esos32/src\esos_comm.c ****   } // end for(...)
 1193              		.loc 1 216 25 discriminator 9 view .LVU332
 1194 006c B855     		strb	r0, [r7, r6]
ARM GAS  C:\Users\Travis\AppData\Local\Temp\cci1JC9h.s 			page 29


 213:C:/MinGW/msys/1.0/esos32/src\esos_comm.c ****     //wait for the RX character to arrive
 1195              		.loc 1 213 35 is_stmt 1 discriminator 9 view .LVU333
 213:C:/MinGW/msys/1.0/esos32/src\esos_comm.c ****     //wait for the RX character to arrive
 1196              		.loc 1 213 39 is_stmt 0 discriminator 9 view .LVU334
 1197 006e 2B78     		ldrb	r3, [r5]	@ zero_extendqisi2
 1198 0070 0133     		adds	r3, r3, #1
 1199 0072 2B70     		strb	r3, [r5]
 1200 0074 DBE7     		b	.L94
 1201              	.L101:
 215:C:/MinGW/msys/1.0/esos32/src\esos_comm.c ****     pau8_LocalPtr[u8_i] = __esos_CB_ReadUINT8( __pst_CB_Rx );
 1202              		.loc 1 215 5 is_stmt 1 discriminator 2 view .LVU335
 1203 0076 0423     		movs	r3, #4
 1204 0078 A370     		strb	r3, [r4, #2]
 215:C:/MinGW/msys/1.0/esos32/src\esos_comm.c ****     pau8_LocalPtr[u8_i] = __esos_CB_ReadUINT8( __pst_CB_Rx );
 1205              		.loc 1 215 5 discriminator 2 view .LVU336
 1206 007a 0320     		movs	r0, #3
 1207 007c CFE7     		b	.L96
 1208              	.L97:
 215:C:/MinGW/msys/1.0/esos32/src\esos_comm.c ****     pau8_LocalPtr[u8_i] = __esos_CB_ReadUINT8( __pst_CB_Rx );
 1209              		.loc 1 215 5 discriminator 5 view .LVU337
 1210 007e 43F00103 		orr	r3, r3, #1
 1211 0082 A370     		strb	r3, [r4, #2]
 1212 0084 E6E7     		b	.L98
 1213              	.L103:
 1214 0086 00BF     		.align	2
 1215              	.L102:
 1216 0088 00000000 		.word	.LANCHOR7
 1217 008c 00000000 		.word	.LANCHOR8
 1218 0090 00000000 		.word	.LANCHOR9
 1219 0094 00000000 		.word	__pst_CB_Rx
 1220              		.cfi_endproc
 1221              	.LFE9:
 1223              		.section	.text.__esos_getString,"ax",%progbits
 1224              		.align	1
 1225              		.global	__esos_getString
 1226              		.syntax unified
 1227              		.thumb
 1228              		.thumb_func
 1229              		.fpu fpv4-sp-d16
 1231              	__esos_getString:
 1232              	.LVL71:
 1233              	.LFB10:
 220:C:/MinGW/msys/1.0/esos32/src\esos_comm.c **** 
 221:C:/MinGW/msys/1.0/esos32/src\esos_comm.c **** // ************************************************************
 222:C:/MinGW/msys/1.0/esos32/src\esos_comm.c **** // THIS FUNCTION IS POTENTIALLY VERY DANGEROUS!!!!!!
 223:C:/MinGW/msys/1.0/esos32/src\esos_comm.c **** // ************************************************************
 224:C:/MinGW/msys/1.0/esos32/src\esos_comm.c **** // The return data buffer pau8_buff must be at least as big as
 225:C:/MinGW/msys/1.0/esos32/src\esos_comm.c **** // the ESOS coming incoming buffer -- ESOS_SERIAL_OUT_EP_SIZE
 226:C:/MinGW/msys/1.0/esos32/src\esos_comm.c **** //
 227:C:/MinGW/msys/1.0/esos32/src\esos_comm.c **** // Will suck down data until we get a zero-terminator, or
 228:C:/MinGW/msys/1.0/esos32/src\esos_comm.c **** // carriage return/newline type character.  Will also return when
 229:C:/MinGW/msys/1.0/esos32/src\esos_comm.c **** // the number of characters received is the size of the ESOS
 230:C:/MinGW/msys/1.0/esos32/src\esos_comm.c **** // incoming data buffer -- ESOS_SERIAL_OUT_EP_SIZE
 231:C:/MinGW/msys/1.0/esos32/src\esos_comm.c **** //
 232:C:/MinGW/msys/1.0/esos32/src\esos_comm.c **** ESOS_CHILD_TASK( __esos_getString, char* pau8_buff) {
 1234              		.loc 1 232 53 view -0
 1235              		.cfi_startproc
ARM GAS  C:\Users\Travis\AppData\Local\Temp\cci1JC9h.s 			page 30


 1236              		@ args = 0, pretend = 0, frame = 0
 1237              		@ frame_needed = 0, uses_anonymous_args = 0
 1238              		.loc 1 232 53 is_stmt 0 view .LVU339
 1239 0000 F8B5     		push	{r3, r4, r5, r6, r7, lr}
 1240              	.LCFI8:
 1241              		.cfi_def_cfa_offset 24
 1242              		.cfi_offset 3, -24
 1243              		.cfi_offset 4, -20
 1244              		.cfi_offset 5, -16
 1245              		.cfi_offset 6, -12
 1246              		.cfi_offset 7, -8
 1247              		.cfi_offset 14, -4
 1248 0002 0446     		mov	r4, r0
 1249 0004 0D46     		mov	r5, r1
 233:C:/MinGW/msys/1.0/esos32/src\esos_comm.c ****   static uint8_t        u8_i;
 1250              		.loc 1 233 3 is_stmt 1 view .LVU340
 234:C:/MinGW/msys/1.0/esos32/src\esos_comm.c **** 
 235:C:/MinGW/msys/1.0/esos32/src\esos_comm.c ****   ESOS_TASK_BEGIN();
 1251              		.loc 1 235 3 view .LVU341
 1252 0006 8378     		ldrb	r3, [r0, #2]	@ zero_extendqisi2
 1253 0008 63F07F03 		orn	r3, r3, #127
 1254 000c 8370     		strb	r3, [r0, #2]
 1255              		.loc 1 235 3 view .LVU342
 1256 000e 0388     		ldrh	r3, [r0]
 1257 0010 3BB1     		cbz	r3, .L105
 1258 0012 EE2B     		cmp	r3, #238
 1259 0014 0ED0     		beq	.L106
 1260              	.LVL72:
 1261              	.L107:
 236:C:/MinGW/msys/1.0/esos32/src\esos_comm.c ****   for (u8_i=0; u8_i<(ESOS_SERIAL_OUT_EP_SIZE-1); u8_i++) {
 237:C:/MinGW/msys/1.0/esos32/src\esos_comm.c ****     //wait for the RX character to arrive
 238:C:/MinGW/msys/1.0/esos32/src\esos_comm.c ****     ESOS_TASK_WAIT_WHILE ( __ESOS_CB_IS_EMPTY( __pst_CB_Rx ) );
 239:C:/MinGW/msys/1.0/esos32/src\esos_comm.c ****     pau8_buff[u8_i] = __esos_CB_ReadUINT8( __pst_CB_Rx );
 240:C:/MinGW/msys/1.0/esos32/src\esos_comm.c ****     if ((pau8_buff[u8_i] == '\n') || (pau8_buff[u8_i] == '\r') || (pau8_buff[u8_i] == 0)) break;
 241:C:/MinGW/msys/1.0/esos32/src\esos_comm.c ****   } // end for(...)
 242:C:/MinGW/msys/1.0/esos32/src\esos_comm.c ****   pau8_buff[u8_i] = 0;
 243:C:/MinGW/msys/1.0/esos32/src\esos_comm.c ****   ESOS_TASK_END();
 1262              		.loc 1 243 3 view .LVU343
 1263              		.loc 1 243 3 view .LVU344
 1264 0016 0823     		movs	r3, #8
 1265 0018 A370     		strb	r3, [r4, #2]
 1266              		.loc 1 243 3 view .LVU345
 1267 001a 0023     		movs	r3, #0
 1268 001c 2380     		strh	r3, [r4]	@ movhi
 1269              		.loc 1 243 3 view .LVU346
 1270              		.loc 1 243 3 view .LVU347
 1271              		.loc 1 243 3 view .LVU348
 1272 001e 0320     		movs	r0, #3
 1273              	.L110:
 1274              		.loc 1 243 18 discriminator 1 view .LVU349
 244:C:/MinGW/msys/1.0/esos32/src\esos_comm.c **** } // end __esos_getString
 1275              		.loc 1 244 1 is_stmt 0 discriminator 1 view .LVU350
 1276 0020 F8BD     		pop	{r3, r4, r5, r6, r7, pc}
 1277              	.LVL73:
 1278              	.L105:
 235:C:/MinGW/msys/1.0/esos32/src\esos_comm.c ****   for (u8_i=0; u8_i<(ESOS_SERIAL_OUT_EP_SIZE-1); u8_i++) {
 1279              		.loc 1 235 20 is_stmt 1 discriminator 1 view .LVU351
ARM GAS  C:\Users\Travis\AppData\Local\Temp\cci1JC9h.s 			page 31


 236:C:/MinGW/msys/1.0/esos32/src\esos_comm.c ****   for (u8_i=0; u8_i<(ESOS_SERIAL_OUT_EP_SIZE-1); u8_i++) {
 1280              		.loc 1 236 3 discriminator 1 view .LVU352
 236:C:/MinGW/msys/1.0/esos32/src\esos_comm.c ****   for (u8_i=0; u8_i<(ESOS_SERIAL_OUT_EP_SIZE-1); u8_i++) {
 1281              		.loc 1 236 12 is_stmt 0 discriminator 1 view .LVU353
 1282 0022 1B4B     		ldr	r3, .L117
 1283 0024 0022     		movs	r2, #0
 1284 0026 1A70     		strb	r2, [r3]
 1285              	.LVL74:
 1286              	.L108:
 236:C:/MinGW/msys/1.0/esos32/src\esos_comm.c ****   for (u8_i=0; u8_i<(ESOS_SERIAL_OUT_EP_SIZE-1); u8_i++) {
 1287              		.loc 1 236 16 is_stmt 1 discriminator 1 view .LVU354
 236:C:/MinGW/msys/1.0/esos32/src\esos_comm.c ****   for (u8_i=0; u8_i<(ESOS_SERIAL_OUT_EP_SIZE-1); u8_i++) {
 1288              		.loc 1 236 20 is_stmt 0 discriminator 1 view .LVU355
 1289 0028 194B     		ldr	r3, .L117
 1290 002a 1B78     		ldrb	r3, [r3]	@ zero_extendqisi2
 236:C:/MinGW/msys/1.0/esos32/src\esos_comm.c ****   for (u8_i=0; u8_i<(ESOS_SERIAL_OUT_EP_SIZE-1); u8_i++) {
 1291              		.loc 1 236 3 discriminator 1 view .LVU356
 1292 002c 3E2B     		cmp	r3, #62
 1293 002e 29D8     		bhi	.L113
 238:C:/MinGW/msys/1.0/esos32/src\esos_comm.c ****     pau8_buff[u8_i] = __esos_CB_ReadUINT8( __pst_CB_Rx );
 1294              		.loc 1 238 5 is_stmt 1 view .LVU357
 238:C:/MinGW/msys/1.0/esos32/src\esos_comm.c ****     pau8_buff[u8_i] = __esos_CB_ReadUINT8( __pst_CB_Rx );
 1295              		.loc 1 238 5 view .LVU358
 1296 0030 EE23     		movs	r3, #238
 1297 0032 2380     		strh	r3, [r4]	@ movhi
 1298              	.L106:
 238:C:/MinGW/msys/1.0/esos32/src\esos_comm.c ****     pau8_buff[u8_i] = __esos_CB_ReadUINT8( __pst_CB_Rx );
 1299              		.loc 1 238 5 discriminator 1 view .LVU359
 238:C:/MinGW/msys/1.0/esos32/src\esos_comm.c ****     pau8_buff[u8_i] = __esos_CB_ReadUINT8( __pst_CB_Rx );
 1300              		.loc 1 238 5 discriminator 1 view .LVU360
 1301 0034 A378     		ldrb	r3, [r4, #2]	@ zero_extendqisi2
 1302 0036 13F00400 		ands	r0, r3, #4
 1303 003a 1BD1     		bne	.L116
 238:C:/MinGW/msys/1.0/esos32/src\esos_comm.c ****     pau8_buff[u8_i] = __esos_CB_ReadUINT8( __pst_CB_Rx );
 1304              		.loc 1 238 5 discriminator 3 view .LVU361
 1305 003c 154A     		ldr	r2, .L117+4
 1306 003e 1268     		ldr	r2, [r2]
 1307 0040 9288     		ldrh	r2, [r2, #4]
 1308 0042 DAB1     		cbz	r2, .L111
 238:C:/MinGW/msys/1.0/esos32/src\esos_comm.c ****     pau8_buff[u8_i] = __esos_CB_ReadUINT8( __pst_CB_Rx );
 1309              		.loc 1 238 5 discriminator 4 view .LVU362
 1310 0044 23F00103 		bic	r3, r3, #1
 1311 0048 A370     		strb	r3, [r4, #2]
 1312              	.L112:
 238:C:/MinGW/msys/1.0/esos32/src\esos_comm.c ****     pau8_buff[u8_i] = __esos_CB_ReadUINT8( __pst_CB_Rx );
 1313              		.loc 1 238 5 discriminator 7 view .LVU363
 1314 004a A378     		ldrb	r3, [r4, #2]	@ zero_extendqisi2
 1315 004c 13F0010F 		tst	r3, #1
 1316 0050 E6D1     		bne	.L110
 238:C:/MinGW/msys/1.0/esos32/src\esos_comm.c ****     pau8_buff[u8_i] = __esos_CB_ReadUINT8( __pst_CB_Rx );
 1317              		.loc 1 238 5 discriminator 9 view .LVU364
 239:C:/MinGW/msys/1.0/esos32/src\esos_comm.c ****     if ((pau8_buff[u8_i] == '\n') || (pau8_buff[u8_i] == '\r') || (pau8_buff[u8_i] == 0)) break;
 1318              		.loc 1 239 5 discriminator 9 view .LVU365
 239:C:/MinGW/msys/1.0/esos32/src\esos_comm.c ****     if ((pau8_buff[u8_i] == '\n') || (pau8_buff[u8_i] == '\r') || (pau8_buff[u8_i] == 0)) break;
 1319              		.loc 1 239 14 is_stmt 0 discriminator 9 view .LVU366
 1320 0052 0F4E     		ldr	r6, .L117
 1321 0054 3778     		ldrb	r7, [r6]	@ zero_extendqisi2
ARM GAS  C:\Users\Travis\AppData\Local\Temp\cci1JC9h.s 			page 32


 239:C:/MinGW/msys/1.0/esos32/src\esos_comm.c ****     if ((pau8_buff[u8_i] == '\n') || (pau8_buff[u8_i] == '\r') || (pau8_buff[u8_i] == 0)) break;
 1322              		.loc 1 239 23 discriminator 9 view .LVU367
 1323 0056 0F4B     		ldr	r3, .L117+4
 1324 0058 1868     		ldr	r0, [r3]
 1325 005a FFF7FEFF 		bl	__esos_CB_ReadUINT8
 1326              	.LVL75:
 239:C:/MinGW/msys/1.0/esos32/src\esos_comm.c ****     if ((pau8_buff[u8_i] == '\n') || (pau8_buff[u8_i] == '\r') || (pau8_buff[u8_i] == 0)) break;
 1327              		.loc 1 239 21 discriminator 9 view .LVU368
 1328 005e E855     		strb	r0, [r5, r7]
 240:C:/MinGW/msys/1.0/esos32/src\esos_comm.c ****   } // end for(...)
 1329              		.loc 1 240 5 is_stmt 1 discriminator 9 view .LVU369
 240:C:/MinGW/msys/1.0/esos32/src\esos_comm.c ****   } // end for(...)
 1330              		.loc 1 240 19 is_stmt 0 discriminator 9 view .LVU370
 1331 0060 3278     		ldrb	r2, [r6]	@ zero_extendqisi2
 1332 0062 AB5C     		ldrb	r3, [r5, r2]	@ zero_extendqisi2
 240:C:/MinGW/msys/1.0/esos32/src\esos_comm.c ****   } // end for(...)
 1333              		.loc 1 240 8 discriminator 9 view .LVU371
 1334 0064 0A2B     		cmp	r3, #10
 1335 0066 0DD0     		beq	.L113
 240:C:/MinGW/msys/1.0/esos32/src\esos_comm.c ****   } // end for(...)
 1336              		.loc 1 240 35 discriminator 1 view .LVU372
 1337 0068 0D2B     		cmp	r3, #13
 1338 006a 0BD0     		beq	.L113
 240:C:/MinGW/msys/1.0/esos32/src\esos_comm.c ****   } // end for(...)
 1339              		.loc 1 240 64 discriminator 2 view .LVU373
 1340 006c 53B1     		cbz	r3, .L113
 236:C:/MinGW/msys/1.0/esos32/src\esos_comm.c ****     //wait for the RX character to arrive
 1341              		.loc 1 236 50 is_stmt 1 discriminator 2 view .LVU374
 236:C:/MinGW/msys/1.0/esos32/src\esos_comm.c ****     //wait for the RX character to arrive
 1342              		.loc 1 236 54 is_stmt 0 discriminator 2 view .LVU375
 1343 006e 0132     		adds	r2, r2, #1
 1344 0070 3270     		strb	r2, [r6]
 1345 0072 D9E7     		b	.L108
 1346              	.L116:
 238:C:/MinGW/msys/1.0/esos32/src\esos_comm.c ****     pau8_buff[u8_i] = __esos_CB_ReadUINT8( __pst_CB_Rx );
 1347              		.loc 1 238 5 is_stmt 1 discriminator 2 view .LVU376
 1348 0074 0423     		movs	r3, #4
 1349 0076 A370     		strb	r3, [r4, #2]
 238:C:/MinGW/msys/1.0/esos32/src\esos_comm.c ****     pau8_buff[u8_i] = __esos_CB_ReadUINT8( __pst_CB_Rx );
 1350              		.loc 1 238 5 discriminator 2 view .LVU377
 1351 0078 0320     		movs	r0, #3
 1352 007a D1E7     		b	.L110
 1353              	.L111:
 238:C:/MinGW/msys/1.0/esos32/src\esos_comm.c ****     pau8_buff[u8_i] = __esos_CB_ReadUINT8( __pst_CB_Rx );
 1354              		.loc 1 238 5 discriminator 5 view .LVU378
 1355 007c 43F00103 		orr	r3, r3, #1
 1356 0080 A370     		strb	r3, [r4, #2]
 1357 0082 E2E7     		b	.L112
 1358              	.L113:
 242:C:/MinGW/msys/1.0/esos32/src\esos_comm.c ****   ESOS_TASK_END();
 1359              		.loc 1 242 3 view .LVU379
 242:C:/MinGW/msys/1.0/esos32/src\esos_comm.c ****   ESOS_TASK_END();
 1360              		.loc 1 242 12 is_stmt 0 view .LVU380
 1361 0084 024B     		ldr	r3, .L117
 1362 0086 1B78     		ldrb	r3, [r3]	@ zero_extendqisi2
 242:C:/MinGW/msys/1.0/esos32/src\esos_comm.c ****   ESOS_TASK_END();
 1363              		.loc 1 242 19 view .LVU381
ARM GAS  C:\Users\Travis\AppData\Local\Temp\cci1JC9h.s 			page 33


 1364 0088 0022     		movs	r2, #0
 1365 008a EA54     		strb	r2, [r5, r3]
 1366 008c C3E7     		b	.L107
 1367              	.L118:
 1368 008e 00BF     		.align	2
 1369              	.L117:
 1370 0090 00000000 		.word	.LANCHOR10
 1371 0094 00000000 		.word	__pst_CB_Rx
 1372              		.cfi_endproc
 1373              	.LFE10:
 1375              		.section	.text.__esos_unsafe_PutUint8,"ax",%progbits
 1376              		.align	1
 1377              		.global	__esos_unsafe_PutUint8
 1378              		.syntax unified
 1379              		.thumb
 1380              		.thumb_func
 1381              		.fpu fpv4-sp-d16
 1383              	__esos_unsafe_PutUint8:
 1384              	.LVL76:
 1385              	.LFB11:
 245:C:/MinGW/msys/1.0/esos32/src\esos_comm.c **** 
 246:C:/MinGW/msys/1.0/esos32/src\esos_comm.c **** 
 247:C:/MinGW/msys/1.0/esos32/src\esos_comm.c **** // ================================================================
 248:C:/MinGW/msys/1.0/esos32/src\esos_comm.c **** // UNSAFE I/O functions.  Only use when you can be absolutely sure
 249:C:/MinGW/msys/1.0/esos32/src\esos_comm.c **** //  that they will not hang the communications or ESOS scheduler.
 250:C:/MinGW/msys/1.0/esos32/src\esos_comm.c **** // Usually used during init of ESOS before the comm system or scheduler
 251:C:/MinGW/msys/1.0/esos32/src\esos_comm.c **** //  are even running.
 252:C:/MinGW/msys/1.0/esos32/src\esos_comm.c **** // ================================================================
 253:C:/MinGW/msys/1.0/esos32/src\esos_comm.c **** 
 254:C:/MinGW/msys/1.0/esos32/src\esos_comm.c **** // This routine is UNSAFE.  It can HANG the system!!!!
 255:C:/MinGW/msys/1.0/esos32/src\esos_comm.c **** void __esos_unsafe_PutUint8(uint8_t u8_c) {
 1386              		.loc 1 255 43 is_stmt 1 view -0
 1387              		.cfi_startproc
 1388              		@ args = 0, pretend = 0, frame = 0
 1389              		@ frame_needed = 0, uses_anonymous_args = 0
 1390              		.loc 1 255 43 is_stmt 0 view .LVU383
 1391 0000 08B5     		push	{r3, lr}
 1392              	.LCFI9:
 1393              		.cfi_def_cfa_offset 8
 1394              		.cfi_offset 3, -8
 1395              		.cfi_offset 14, -4
 1396 0002 0146     		mov	r1, r0
 256:C:/MinGW/msys/1.0/esos32/src\esos_comm.c ****   // hang while CB is full
 257:C:/MinGW/msys/1.0/esos32/src\esos_comm.c ****   while (__ESOS_CB_IS_FULL( __pst_CB_Tx ));
 1397              		.loc 1 257 3 is_stmt 1 view .LVU384
 1398              	.LVL77:
 1399              	.L120:
 1400              		.loc 1 257 43 discriminator 1 view .LVU385
 1401              		.loc 1 257 9 discriminator 1 view .LVU386
 1402              		.loc 1 257 10 is_stmt 0 discriminator 1 view .LVU387
 1403 0004 054B     		ldr	r3, .L122
 1404 0006 1868     		ldr	r0, [r3]
 1405 0008 0288     		ldrh	r2, [r0]
 1406 000a 8388     		ldrh	r3, [r0, #4]
 1407              		.loc 1 257 9 discriminator 1 view .LVU388
 1408 000c 9A42     		cmp	r2, r3
 1409 000e F9D0     		beq	.L120
ARM GAS  C:\Users\Travis\AppData\Local\Temp\cci1JC9h.s 			page 34


 258:C:/MinGW/msys/1.0/esos32/src\esos_comm.c ****   // write the data in the TX CB
 259:C:/MinGW/msys/1.0/esos32/src\esos_comm.c ****   __esos_CB_WriteUINT8( __pst_CB_Tx, u8_c);
 1410              		.loc 1 259 3 is_stmt 1 view .LVU389
 1411 0010 FFF7FEFF 		bl	__esos_CB_WriteUINT8
 1412              	.LVL78:
 260:C:/MinGW/msys/1.0/esos32/src\esos_comm.c ****   // signal the hardware that a xfer should be started if
 261:C:/MinGW/msys/1.0/esos32/src\esos_comm.c ****   // not already ongoing
 262:C:/MinGW/msys/1.0/esos32/src\esos_comm.c ****   __esos_hw_signal_start_tx();
 1413              		.loc 1 262 3 view .LVU390
 1414 0014 FFF7FEFF 		bl	__esos_hw_signal_start_tx
 1415              	.LVL79:
 263:C:/MinGW/msys/1.0/esos32/src\esos_comm.c **** } //end of __esos_unsafe_PutUint8()
 1416              		.loc 1 263 1 is_stmt 0 view .LVU391
 1417 0018 08BD     		pop	{r3, pc}
 1418              	.L123:
 1419 001a 00BF     		.align	2
 1420              	.L122:
 1421 001c 00000000 		.word	__pst_CB_Tx
 1422              		.cfi_endproc
 1423              	.LFE11:
 1425              		.section	.text.__esos_unsafe_PutString,"ax",%progbits
 1426              		.align	1
 1427              		.global	__esos_unsafe_PutString
 1428              		.syntax unified
 1429              		.thumb
 1430              		.thumb_func
 1431              		.fpu fpv4-sp-d16
 1433              	__esos_unsafe_PutString:
 1434              	.LVL80:
 1435              	.LFB12:
 264:C:/MinGW/msys/1.0/esos32/src\esos_comm.c **** 
 265:C:/MinGW/msys/1.0/esos32/src\esos_comm.c **** // This routine is UNSAFE.  It can HANG the system!!!!
 266:C:/MinGW/msys/1.0/esos32/src\esos_comm.c **** void __esos_unsafe_PutString(char* psz_in) {
 1436              		.loc 1 266 44 is_stmt 1 view -0
 1437              		.cfi_startproc
 1438              		@ args = 0, pretend = 0, frame = 0
 1439              		@ frame_needed = 0, uses_anonymous_args = 0
 1440              		.loc 1 266 44 is_stmt 0 view .LVU393
 1441 0000 10B5     		push	{r4, lr}
 1442              	.LCFI10:
 1443              		.cfi_def_cfa_offset 8
 1444              		.cfi_offset 4, -8
 1445              		.cfi_offset 14, -4
 1446 0002 0446     		mov	r4, r0
 267:C:/MinGW/msys/1.0/esos32/src\esos_comm.c ****   while ( *psz_in ) {
 1447              		.loc 1 267 3 is_stmt 1 view .LVU394
 1448              		.loc 1 267 9 is_stmt 0 view .LVU395
 1449 0004 0AE0     		b	.L125
 1450              	.LVL81:
 1451              	.L126:
 268:C:/MinGW/msys/1.0/esos32/src\esos_comm.c ****     // hang while CB is full
 269:C:/MinGW/msys/1.0/esos32/src\esos_comm.c ****     while (__ESOS_CB_IS_FULL( __pst_CB_Tx ));
 1452              		.loc 1 269 45 is_stmt 1 discriminator 1 view .LVU396
 1453              		.loc 1 269 11 discriminator 1 view .LVU397
 1454              		.loc 1 269 12 is_stmt 0 discriminator 1 view .LVU398
 1455 0006 074B     		ldr	r3, .L128
 1456 0008 1868     		ldr	r0, [r3]
ARM GAS  C:\Users\Travis\AppData\Local\Temp\cci1JC9h.s 			page 35


 1457 000a 0288     		ldrh	r2, [r0]
 1458 000c 8388     		ldrh	r3, [r0, #4]
 1459              		.loc 1 269 11 discriminator 1 view .LVU399
 1460 000e 9A42     		cmp	r2, r3
 1461 0010 F9D0     		beq	.L126
 270:C:/MinGW/msys/1.0/esos32/src\esos_comm.c ****     // write the data in the TX CB
 271:C:/MinGW/msys/1.0/esos32/src\esos_comm.c ****     __esos_CB_WriteUINT8( __pst_CB_Tx, *psz_in++);
 1462              		.loc 1 271 5 is_stmt 1 view .LVU400
 1463              		.loc 1 271 47 is_stmt 0 view .LVU401
 1464 0012 0134     		adds	r4, r4, #1
 1465              	.LVL82:
 1466              		.loc 1 271 5 view .LVU402
 1467 0014 FFF7FEFF 		bl	__esos_CB_WriteUINT8
 1468              	.LVL83:
 272:C:/MinGW/msys/1.0/esos32/src\esos_comm.c ****     // signal the hardware that a xfer should be started if
 273:C:/MinGW/msys/1.0/esos32/src\esos_comm.c ****     // not already ongoing
 274:C:/MinGW/msys/1.0/esos32/src\esos_comm.c ****     __esos_hw_signal_start_tx();
 1469              		.loc 1 274 5 is_stmt 1 view .LVU403
 1470 0018 FFF7FEFF 		bl	__esos_hw_signal_start_tx
 1471              	.LVL84:
 1472              	.L125:
 267:C:/MinGW/msys/1.0/esos32/src\esos_comm.c ****     // hang while CB is full
 1473              		.loc 1 267 9 view .LVU404
 267:C:/MinGW/msys/1.0/esos32/src\esos_comm.c ****     // hang while CB is full
 1474              		.loc 1 267 11 is_stmt 0 view .LVU405
 1475 001c 2178     		ldrb	r1, [r4]	@ zero_extendqisi2
 267:C:/MinGW/msys/1.0/esos32/src\esos_comm.c ****     // hang while CB is full
 1476              		.loc 1 267 9 view .LVU406
 1477 001e 0029     		cmp	r1, #0
 1478 0020 F1D1     		bne	.L126
 275:C:/MinGW/msys/1.0/esos32/src\esos_comm.c ****   } //end while
 276:C:/MinGW/msys/1.0/esos32/src\esos_comm.c **** } // end __esos_unsafe_PutString()
 1479              		.loc 1 276 1 view .LVU407
 1480 0022 10BD     		pop	{r4, pc}
 1481              	.LVL85:
 1482              	.L129:
 1483              		.loc 1 276 1 view .LVU408
 1484              		.align	2
 1485              	.L128:
 1486 0024 00000000 		.word	__pst_CB_Tx
 1487              		.cfi_endproc
 1488              	.LFE12:
 1490              		.section	.text.__esos_unsafe_GetUint8,"ax",%progbits
 1491              		.align	1
 1492              		.global	__esos_unsafe_GetUint8
 1493              		.syntax unified
 1494              		.thumb
 1495              		.thumb_func
 1496              		.fpu fpv4-sp-d16
 1498              	__esos_unsafe_GetUint8:
 1499              	.LFB13:
 277:C:/MinGW/msys/1.0/esos32/src\esos_comm.c **** 
 278:C:/MinGW/msys/1.0/esos32/src\esos_comm.c **** // This routine is UNSAFE.  It can HANG the system!!!!
 279:C:/MinGW/msys/1.0/esos32/src\esos_comm.c **** uint8_t __esos_unsafe_GetUint8(void) {
 1500              		.loc 1 279 38 is_stmt 1 view -0
 1501              		.cfi_startproc
 1502              		@ args = 0, pretend = 0, frame = 0
ARM GAS  C:\Users\Travis\AppData\Local\Temp\cci1JC9h.s 			page 36


 1503              		@ frame_needed = 0, uses_anonymous_args = 0
 1504 0000 08B5     		push	{r3, lr}
 1505              	.LCFI11:
 1506              		.cfi_def_cfa_offset 8
 1507              		.cfi_offset 3, -8
 1508              		.cfi_offset 14, -4
 1509              	.L131:
 280:C:/MinGW/msys/1.0/esos32/src\esos_comm.c ****   //wait for the RX character to arrive -- CAN HANG HERE!
 281:C:/MinGW/msys/1.0/esos32/src\esos_comm.c ****   while (__ESOS_CB_IS_EMPTY( __pst_CB_Rx ));
 1510              		.loc 1 281 44 discriminator 1 view .LVU410
 1511              		.loc 1 281 9 discriminator 1 view .LVU411
 1512              		.loc 1 281 10 is_stmt 0 discriminator 1 view .LVU412
 1513 0002 044B     		ldr	r3, .L133
 1514 0004 1868     		ldr	r0, [r3]
 1515 0006 8388     		ldrh	r3, [r0, #4]
 1516              		.loc 1 281 9 discriminator 1 view .LVU413
 1517 0008 002B     		cmp	r3, #0
 1518 000a FAD0     		beq	.L131
 282:C:/MinGW/msys/1.0/esos32/src\esos_comm.c ****   return __esos_CB_ReadUINT8( __pst_CB_Rx );  //return the character
 1519              		.loc 1 282 3 is_stmt 1 view .LVU414
 1520              		.loc 1 282 10 is_stmt 0 view .LVU415
 1521 000c FFF7FEFF 		bl	__esos_CB_ReadUINT8
 1522              	.LVL86:
 283:C:/MinGW/msys/1.0/esos32/src\esos_comm.c **** }
 1523              		.loc 1 283 1 view .LVU416
 1524 0010 08BD     		pop	{r3, pc}
 1525              	.L134:
 1526 0012 00BF     		.align	2
 1527              	.L133:
 1528 0014 00000000 		.word	__pst_CB_Rx
 1529              		.cfi_endproc
 1530              	.LFE13:
 1532              		.comm	__stChildTaskRx,24,4
 1533              		.comm	__stChildTaskTx,24,4
 1534              		.comm	__pst_CB_Rx,4,4
 1535              		.comm	__pst_CB_Tx,4,4
 1536              		.comm	__st_CB_Rx,12,4
 1537              		.comm	__st_CB_Tx,12,4
 1538              		.comm	__esos_comm_rx_buff,64,4
 1539              		.comm	__esos_comm_tx_buff,64,4
 1540              		.section	.bss.au8_String.5921,"aw",%nobits
 1541              		.align	2
 1542              		.set	.LANCHOR1,. + 0
 1545              	au8_String.5921:
 1546 0000 00000000 		.space	5
 1546      00
 1547              		.section	.bss.au8_String.5928,"aw",%nobits
 1548              		.align	2
 1549              		.set	.LANCHOR3,. + 0
 1552              	au8_String.5928:
 1553 0000 00000000 		.space	5
 1553      00
 1554              		.section	.bss.au8_String.5940,"aw",%nobits
 1555              		.align	2
 1556              		.set	.LANCHOR5,. + 0
 1559              	au8_String.5940:
 1560 0000 00000000 		.space	11
ARM GAS  C:\Users\Travis\AppData\Local\Temp\cci1JC9h.s 			page 37


 1560      00000000 
 1560      000000
 1561              		.section	.bss.pau8_LocalPtr.5967,"aw",%nobits
 1562              		.align	2
 1563              		.set	.LANCHOR8,. + 0
 1566              	pau8_LocalPtr.5967:
 1567 0000 00000000 		.space	4
 1568              		.section	.bss.psz_local.5955,"aw",%nobits
 1569              		.align	2
 1570              		.set	.LANCHOR6,. + 0
 1573              	psz_local.5955:
 1574 0000 00000000 		.space	4
 1575              		.section	.bss.u8_LocalSize.5968,"aw",%nobits
 1576              		.set	.LANCHOR7,. + 0
 1579              	u8_LocalSize.5968:
 1580 0000 00       		.space	1
 1581              		.section	.bss.u8_c.5929,"aw",%nobits
 1582              		.set	.LANCHOR4,. + 0
 1585              	u8_c.5929:
 1586 0000 00       		.space	1
 1587              		.section	.bss.u8_digit.5930,"aw",%nobits
 1588              		.set	.LANCHOR2,. + 0
 1591              	u8_digit.5930:
 1592 0000 00       		.space	1
 1593              		.section	.bss.u8_i.5966,"aw",%nobits
 1594              		.set	.LANCHOR9,. + 0
 1597              	u8_i.5966:
 1598 0000 00       		.space	1
 1599              		.section	.bss.u8_i.5978,"aw",%nobits
 1600              		.set	.LANCHOR10,. + 0
 1603              	u8_i.5978:
 1604 0000 00       		.space	1
 1605              		.section	.bss.u8_localChar.5914,"aw",%nobits
 1606              		.set	.LANCHOR0,. + 0
 1609              	u8_localChar.5914:
 1610 0000 00       		.space	1
 1611              		.text
 1612              	.Letext0:
 1613              		.file 2 "c:\\program files (x86)\\gnu tools arm embedded\\9 2019-q4-major\\arm-none-eabi\\include\
 1614              		.file 3 "c:\\program files (x86)\\gnu tools arm embedded\\9 2019-q4-major\\arm-none-eabi\\include\
 1615              		.file 4 "C:/MinGW/msys/1.0/esos32/include/lc-switch.h"
 1616              		.file 5 "C:/MinGW/msys/1.0/esos32/include/esos_cb.h"
 1617              		.file 6 "C:/MinGW/msys/1.0/esos32/include/esos_mail.h"
 1618              		.file 7 "C:/MinGW/msys/1.0/esos32/include/esos_task.h"
 1619              		.file 8 "C:/MinGW/msys/1.0/esos32/include/esos_utils.h"
 1620              		.file 9 "C:/MinGW/msys/1.0/esos32/include/esos_comm.h"
 1621              		.file 10 "C:/MinGW/msys/1.0/esos32/include/esos.h"
ARM GAS  C:\Users\Travis\AppData\Local\Temp\cci1JC9h.s 			page 38

