ARM GAS  C:\Users\Travis\AppData\Local\Temp\ccItFw22.s 			page 1


   1              		.cpu cortex-m4
   2              		.eabi_attribute 27, 1
   3              		.eabi_attribute 28, 1
   4              		.eabi_attribute 20, 1
   5              		.eabi_attribute 21, 1
   6              		.eabi_attribute 23, 3
   7              		.eabi_attribute 24, 1
   8              		.eabi_attribute 25, 1
   9              		.eabi_attribute 26, 1
  10              		.eabi_attribute 30, 1
  11              		.eabi_attribute 34, 1
  12              		.eabi_attribute 18, 4
  13              		.file	"noapp_app.c"
  14              		.text
  15              	.Ltext0:
  16              		.cfi_sections	.debug_frame
  17              		.section	.text.flash_LED,"ax",%progbits
  18              		.align	1
  19              		.global	flash_LED
  20              		.arch armv7e-m
  21              		.syntax unified
  22              		.thumb
  23              		.thumb_func
  24              		.fpu fpv4-sp-d16
  26              	flash_LED:
  27              	.LVL0:
  28              	.LFB0:
  29              		.file 1 "src/noapp_app.c"
   1:src/noapp_app.c **** /*
   2:src/noapp_app.c ****  * "Copyright (c) 2019 J. W. Bruce ("AUTHOR(S)")"
   3:src/noapp_app.c ****  * All rights reserved.
   4:src/noapp_app.c ****  * (J. W. Bruce, jwbruce_AT_tntech.edu, Tennessee Tech University)
   5:src/noapp_app.c ****  *
   6:src/noapp_app.c ****  * Permission to use, copy, modify, and distribute this software and its
   7:src/noapp_app.c ****  * documentation for any purpose, without fee, and without written agreement is
   8:src/noapp_app.c ****  * hereby granted, provided that the above copyright notice, the following
   9:src/noapp_app.c ****  * two paragraphs and the authors appear in all copies of this software.
  10:src/noapp_app.c ****  *
  11:src/noapp_app.c ****  * IN NO EVENT SHALL THE "AUTHORS" BE LIABLE TO ANY PARTY FOR
  12:src/noapp_app.c ****  * DIRECT, INDIRECT, SPECIAL, INCIDENTAL, OR CONSEQUENTIAL DAMAGES ARISING OUT
  13:src/noapp_app.c ****  * OF THE USE OF THIS SOFTWARE AND ITS DOCUMENTATION, EVEN IF THE "AUTHORS"
  14:src/noapp_app.c ****  * HAS BEEN ADVISED OF THE POSSIBILITY OF SUCH DAMAGE.
  15:src/noapp_app.c ****  *
  16:src/noapp_app.c ****  * THE "AUTHORS" SPECIFICALLY DISCLAIMS ANY WARRANTIES,
  17:src/noapp_app.c ****  * INCLUDING, BUT NOT LIMITED TO, THE IMPLIED WARRANTIES OF MERCHANTABILITY
  18:src/noapp_app.c ****  * AND FITNESS FOR A PARTICULAR PURPOSE.  THE SOFTWARE PROVIDED HEREUNDER IS
  19:src/noapp_app.c ****  * ON AN "AS IS" BASIS, AND THE "AUTHORS" HAS NO OBLIGATION TO
  20:src/noapp_app.c ****  * PROVIDE MAINTENANCE, SUPPORT, UPDATES, ENHANCEMENTS, OR MODIFICATIONS."
  21:src/noapp_app.c ****  *
  22:src/noapp_app.c ****  * Please maintain this header in its entirety when copying/modifying
  23:src/noapp_app.c ****  * these files.
  24:src/noapp_app.c ****  *
  25:src/noapp_app.c ****  *
  26:src/noapp_app.c ****  */
  27:src/noapp_app.c **** 
  28:src/noapp_app.c **** // #define ESOS_USE_IRQS
  29:src/noapp_app.c **** 
ARM GAS  C:\Users\Travis\AppData\Local\Temp\ccItFw22.s 			page 2


  30:src/noapp_app.c **** // INCLUDEs go here  (First include the main esos.h file)
  31:src/noapp_app.c **** //      After that, the user can include what they need
  32:src/noapp_app.c **** #include    "esos.h"
  33:src/noapp_app.c **** #include  "user_app.h"
  34:src/noapp_app.c **** #ifdef __linux
  35:src/noapp_app.c **** #include    "esos_pc.h"
  36:src/noapp_app.c **** #include    "esos_pc_stdio.h"
  37:src/noapp_app.c **** // INCLUDE these so our printf and other PC hacks work
  38:src/noapp_app.c **** #include <stdio.h>
  39:src/noapp_app.c **** #include <sys/select.h>
  40:src/noapp_app.c **** #include <termios.h>
  41:src/noapp_app.c **** #include <unistd.h>
  42:src/noapp_app.c **** #else
  43:src/noapp_app.c **** #include    "esos_stm32l4.h"
  44:src/noapp_app.c **** #include    "esos_stm32l4_rs232.h"
  45:src/noapp_app.c **** #endif
  46:src/noapp_app.c **** 
  47:src/noapp_app.c **** 
  48:src/noapp_app.c **** // DEFINEs go here
  49:src/noapp_app.c **** 
  50:src/noapp_app.c **** /*
  51:src/noapp_app.c ****  * PROTOTYPEs go here
  52:src/noapp_app.c ****  *
  53:src/noapp_app.c ****  */
  54:src/noapp_app.c **** void __user_init_hw( void );
  55:src/noapp_app.c **** 
  56:src/noapp_app.c **** 
  57:src/noapp_app.c **** // GLOBALs go here
  58:src/noapp_app.c **** //  Generally, the user-created semaphores will be defined/allocated here
  59:src/noapp_app.c **** //static uint8_t psz_CRNL[3]= {0x0D, 0x0A, 0};
  60:src/noapp_app.c **** 
  61:src/noapp_app.c **** 
  62:src/noapp_app.c **** // timer globals
  63:src/noapp_app.c **** 
  64:src/noapp_app.c **** #ifdef _linux
  65:src/noapp_app.c **** /*
  66:src/noapp_app.c ****  * Simulate the timer ISR found on a MCU
  67:src/noapp_app.c ****  *   The PC doesn't have a timer ISR, so this task will periodically
  68:src/noapp_app.c ****  *   call the timer services callback instead.
  69:src/noapp_app.c ****  *   USED ONLY FOR DEVELOPMENT AND TESTING ON PC.
  70:src/noapp_app.c ****  *   Real MCU hardware doesn't need this task
  71:src/noapp_app.c ****  */
  72:src/noapp_app.c **** ESOS_USER_TASK( __simulated_isr ) {
  73:src/noapp_app.c ****   ESOS_TASK_BEGIN();
  74:src/noapp_app.c ****   while (TRUE) {
  75:src/noapp_app.c ****     // call the ESOS timer services callback just like a real H/W ISR would
  76:src/noapp_app.c ****     __esos_tmrSvcsExecute();
  77:src/noapp_app.c ****     ESOS_TASK_WAIT_TICKS(  1 );
  78:src/noapp_app.c **** 
  79:src/noapp_app.c ****   } // endof while(TRUE)
  80:src/noapp_app.c ****   ESOS_TASK_END();
  81:src/noapp_app.c **** } // end child_task
  82:src/noapp_app.c **** #endif
  83:src/noapp_app.c **** 
  84:src/noapp_app.c **** ESOS_USER_TASK( flash_LED ) {
  30              		.loc 1 84 29 view -0
  31              		.cfi_startproc
ARM GAS  C:\Users\Travis\AppData\Local\Temp\ccItFw22.s 			page 3


  32              		@ args = 0, pretend = 0, frame = 0
  33              		@ frame_needed = 0, uses_anonymous_args = 0
  34              		.loc 1 84 29 is_stmt 0 view .LVU1
  35 0000 38B5     		push	{r3, r4, r5, lr}
  36              	.LCFI0:
  37              		.cfi_def_cfa_offset 16
  38              		.cfi_offset 3, -16
  39              		.cfi_offset 4, -12
  40              		.cfi_offset 5, -8
  41              		.cfi_offset 14, -4
  42 0002 0446     		mov	r4, r0
  85:src/noapp_app.c ****   ESOS_TASK_BEGIN();
  43              		.loc 1 85 3 is_stmt 1 view .LVU2
  44 0004 8378     		ldrb	r3, [r0, #2]	@ zero_extendqisi2
  45 0006 63F07F03 		orn	r3, r3, #127
  46 000a 8370     		strb	r3, [r0, #2]
  47              		.loc 1 85 3 view .LVU3
  48 000c 0388     		ldrh	r3, [r0]
  49 000e 5A2B     		cmp	r3, #90
  50 0010 27D0     		beq	.L2
  51 0012 5C2B     		cmp	r3, #92
  52 0014 3CD0     		beq	.L3
  53 0016 93B1     		cbz	r3, .L10
  86:src/noapp_app.c ****   while (TRUE) {
  87:src/noapp_app.c ****     gpio_toggle(LED2_GPIO_Port,LED2_Pin);
  88:src/noapp_app.c ****     if(gpio_get(SW1_GPIO_Port,SW1_Pin) == 0)
  89:src/noapp_app.c ****     {
  90:src/noapp_app.c ****       ESOS_TASK_WAIT_TICKS( 125 );
  91:src/noapp_app.c ****     } else {
  92:src/noapp_app.c ****       ESOS_TASK_WAIT_TICKS( 600 );
  93:src/noapp_app.c ****     }
  94:src/noapp_app.c ****   } // endof while(TRUE)
  95:src/noapp_app.c ****   ESOS_TASK_END();
  54              		.loc 1 95 3 view .LVU4
  55              		.loc 1 95 3 view .LVU5
  56 0018 0823     		movs	r3, #8
  57 001a 8370     		strb	r3, [r0, #2]
  58              		.loc 1 95 3 view .LVU6
  59 001c 0023     		movs	r3, #0
  60 001e 0380     		strh	r3, [r0]	@ movhi
  61              		.loc 1 95 3 view .LVU7
  62              		.loc 1 95 3 view .LVU8
  63              		.loc 1 95 3 view .LVU9
  64 0020 0325     		movs	r5, #3
  65              	.LVL1:
  66              	.L7:
  67              		.loc 1 95 18 discriminator 1 view .LVU10
  96:src/noapp_app.c **** } // end flash_LED()
  68              		.loc 1 96 1 is_stmt 0 discriminator 1 view .LVU11
  69 0022 2846     		mov	r0, r5
  70 0024 38BD     		pop	{r3, r4, r5, pc}
  71              	.LVL2:
  72              	.L15:
  90:src/noapp_app.c ****     } else {
  73              		.loc 1 90 7 is_stmt 1 discriminator 2 view .LVU12
  74 0026 0423     		movs	r3, #4
  75 0028 A370     		strb	r3, [r4, #2]
ARM GAS  C:\Users\Travis\AppData\Local\Temp\ccItFw22.s 			page 4


  90:src/noapp_app.c ****     } else {
  76              		.loc 1 90 7 discriminator 2 view .LVU13
  77 002a 0325     		movs	r5, #3
  78 002c F9E7     		b	.L7
  79              	.L8:
  90:src/noapp_app.c ****     } else {
  80              		.loc 1 90 7 discriminator 5 view .LVU14
  81 002e A378     		ldrb	r3, [r4, #2]	@ zero_extendqisi2
  82 0030 43F00103 		orr	r3, r3, #1
  83 0034 A370     		strb	r3, [r4, #2]
  84              	.L9:
  90:src/noapp_app.c ****     } else {
  85              		.loc 1 90 7 discriminator 7 view .LVU15
  86 0036 A378     		ldrb	r3, [r4, #2]	@ zero_extendqisi2
  87 0038 13F0010F 		tst	r3, #1
  88 003c F1D1     		bne	.L7
  89              	.L10:
  85:src/noapp_app.c ****   while (TRUE) {
  90              		.loc 1 85 20 discriminator 1 view .LVU16
  86:src/noapp_app.c ****     gpio_toggle(LED2_GPIO_Port,LED2_Pin);
  91              		.loc 1 86 3 discriminator 1 view .LVU17
  87:src/noapp_app.c ****     if(gpio_get(SW1_GPIO_Port,SW1_Pin) == 0)
  92              		.loc 1 87 5 discriminator 1 view .LVU18
  93 003e 2021     		movs	r1, #32
  94 0040 4FF09040 		mov	r0, #1207959552
  95 0044 FFF7FEFF 		bl	gpio_toggle
  96              	.LVL3:
  88:src/noapp_app.c ****     {
  97              		.loc 1 88 5 discriminator 1 view .LVU19
  88:src/noapp_app.c ****     {
  98              		.loc 1 88 8 is_stmt 0 discriminator 1 view .LVU20
  99 0048 4FF40051 		mov	r1, #8192
 100 004c 1E48     		ldr	r0, .L17
 101 004e FFF7FEFF 		bl	gpio_get
 102              	.LVL4:
  88:src/noapp_app.c ****     {
 103              		.loc 1 88 7 discriminator 1 view .LVU21
 104 0052 A8B9     		cbnz	r0, .L5
  90:src/noapp_app.c ****     } else {
 105              		.loc 1 90 7 is_stmt 1 view .LVU22
  90:src/noapp_app.c ****     } else {
 106              		.loc 1 90 7 view .LVU23
 107 0054 FFF7FEFF 		bl	__esos_hw_GetSystemTickCount
 108              	.LVL5:
 109 0058 A060     		str	r0, [r4, #8]
  90:src/noapp_app.c ****     } else {
 110              		.loc 1 90 7 view .LVU24
 111 005a 7D23     		movs	r3, #125
 112 005c E360     		str	r3, [r4, #12]
  90:src/noapp_app.c ****     } else {
 113              		.loc 1 90 7 view .LVU25
  90:src/noapp_app.c ****     } else {
 114              		.loc 1 90 7 view .LVU26
 115 005e 5A23     		movs	r3, #90
 116 0060 2380     		strh	r3, [r4]	@ movhi
 117              	.L2:
  90:src/noapp_app.c ****     } else {
ARM GAS  C:\Users\Travis\AppData\Local\Temp\ccItFw22.s 			page 5


 118              		.loc 1 90 7 discriminator 1 view .LVU27
  90:src/noapp_app.c ****     } else {
 119              		.loc 1 90 7 discriminator 1 view .LVU28
 120 0062 A578     		ldrb	r5, [r4, #2]	@ zero_extendqisi2
 121 0064 15F00405 		ands	r5, r5, #4
 122 0068 DDD1     		bne	.L15
  90:src/noapp_app.c ****     } else {
 123              		.loc 1 90 7 discriminator 3 view .LVU29
 124 006a E168     		ldr	r1, [r4, #12]
 125 006c A068     		ldr	r0, [r4, #8]
 126 006e FFF7FEFF 		bl	__esos_hasTickDurationPassed
 127              	.LVL6:
 128 0072 0028     		cmp	r0, #0
 129 0074 DBD0     		beq	.L8
  90:src/noapp_app.c ****     } else {
 130              		.loc 1 90 7 discriminator 4 view .LVU30
 131 0076 A378     		ldrb	r3, [r4, #2]	@ zero_extendqisi2
 132 0078 23F00103 		bic	r3, r3, #1
 133 007c A370     		strb	r3, [r4, #2]
 134 007e DAE7     		b	.L9
 135              	.L5:
  92:src/noapp_app.c ****     }
 136              		.loc 1 92 7 view .LVU31
  92:src/noapp_app.c ****     }
 137              		.loc 1 92 7 view .LVU32
 138 0080 FFF7FEFF 		bl	__esos_hw_GetSystemTickCount
 139              	.LVL7:
 140 0084 A060     		str	r0, [r4, #8]
  92:src/noapp_app.c ****     }
 141              		.loc 1 92 7 view .LVU33
 142 0086 4FF41673 		mov	r3, #600
 143 008a E360     		str	r3, [r4, #12]
  92:src/noapp_app.c ****     }
 144              		.loc 1 92 7 view .LVU34
  92:src/noapp_app.c ****     }
 145              		.loc 1 92 7 view .LVU35
 146 008c 5C23     		movs	r3, #92
 147 008e 2380     		strh	r3, [r4]	@ movhi
 148              	.L3:
  92:src/noapp_app.c ****     }
 149              		.loc 1 92 7 discriminator 1 view .LVU36
  92:src/noapp_app.c ****     }
 150              		.loc 1 92 7 discriminator 1 view .LVU37
 151 0090 A578     		ldrb	r5, [r4, #2]	@ zero_extendqisi2
 152 0092 15F00405 		ands	r5, r5, #4
 153 0096 0DD1     		bne	.L16
  92:src/noapp_app.c ****     }
 154              		.loc 1 92 7 discriminator 3 view .LVU38
 155 0098 E168     		ldr	r1, [r4, #12]
 156 009a A068     		ldr	r0, [r4, #8]
 157 009c FFF7FEFF 		bl	__esos_hasTickDurationPassed
 158              	.LVL8:
 159 00a0 60B1     		cbz	r0, .L12
  92:src/noapp_app.c ****     }
 160              		.loc 1 92 7 discriminator 4 view .LVU39
 161 00a2 A378     		ldrb	r3, [r4, #2]	@ zero_extendqisi2
 162 00a4 23F00103 		bic	r3, r3, #1
ARM GAS  C:\Users\Travis\AppData\Local\Temp\ccItFw22.s 			page 6


 163 00a8 A370     		strb	r3, [r4, #2]
 164              	.L13:
  92:src/noapp_app.c ****     }
 165              		.loc 1 92 7 discriminator 7 view .LVU40
 166 00aa A378     		ldrb	r3, [r4, #2]	@ zero_extendqisi2
 167 00ac 13F0010F 		tst	r3, #1
 168 00b0 C5D0     		beq	.L10
 169 00b2 B6E7     		b	.L7
 170              	.L16:
  92:src/noapp_app.c ****     }
 171              		.loc 1 92 7 discriminator 2 view .LVU41
 172 00b4 0423     		movs	r3, #4
 173 00b6 A370     		strb	r3, [r4, #2]
  92:src/noapp_app.c ****     }
 174              		.loc 1 92 7 discriminator 2 view .LVU42
 175 00b8 0325     		movs	r5, #3
 176 00ba B2E7     		b	.L7
 177              	.L12:
  92:src/noapp_app.c ****     }
 178              		.loc 1 92 7 discriminator 5 view .LVU43
 179 00bc A378     		ldrb	r3, [r4, #2]	@ zero_extendqisi2
 180 00be 43F00103 		orr	r3, r3, #1
 181 00c2 A370     		strb	r3, [r4, #2]
 182 00c4 F1E7     		b	.L13
 183              	.L18:
 184 00c6 00BF     		.align	2
 185              	.L17:
 186 00c8 00080048 		.word	1207961600
 187              		.cfi_endproc
 188              	.LFE0:
 190              		.section	.text.echo,"ax",%progbits
 191              		.align	1
 192              		.global	echo
 193              		.syntax unified
 194              		.thumb
 195              		.thumb_func
 196              		.fpu fpv4-sp-d16
 198              	echo:
 199              	.LVL9:
 200              	.LFB1:
  97:src/noapp_app.c **** 
  98:src/noapp_app.c **** ESOS_USER_TASK( echo ) {
 201              		.loc 1 98 24 view -0
 202              		.cfi_startproc
 203              		@ args = 0, pretend = 0, frame = 0
 204              		@ frame_needed = 0, uses_anonymous_args = 0
 205              		.loc 1 98 24 is_stmt 0 view .LVU45
 206 0000 38B5     		push	{r3, r4, r5, lr}
 207              	.LCFI1:
 208              		.cfi_def_cfa_offset 16
 209              		.cfi_offset 3, -16
 210              		.cfi_offset 4, -12
 211              		.cfi_offset 5, -8
 212              		.cfi_offset 14, -4
 213 0002 0446     		mov	r4, r0
  99:src/noapp_app.c ****   static uint8_t    u8_incoming;
 214              		.loc 1 99 3 is_stmt 1 view .LVU46
ARM GAS  C:\Users\Travis\AppData\Local\Temp\ccItFw22.s 			page 7


 100:src/noapp_app.c **** 
 101:src/noapp_app.c ****   ESOS_TASK_BEGIN();
 215              		.loc 1 101 3 view .LVU47
 216 0004 8378     		ldrb	r3, [r0, #2]	@ zero_extendqisi2
 217 0006 63F07F03 		orn	r3, r3, #127
 218 000a 8370     		strb	r3, [r0, #2]
 219              		.loc 1 101 3 view .LVU48
 220 000c 0388     		ldrh	r3, [r0]
 221 000e 002B     		cmp	r3, #0
 222 0010 56D0     		beq	.L20
 223 0012 722B     		cmp	r3, #114
 224 0014 00F2AB80 		bhi	.L21
 225 0018 672B     		cmp	r3, #103
 226 001a C0F0A880 		bcc	.L21
 227 001e 673B     		subs	r3, r3, #103
 228 0020 0B2B     		cmp	r3, #11
 229 0022 00F2A480 		bhi	.L21
 230 0026 DFE803F0 		tbb	[pc, r3]
 231              	.L23:
 232 002a 4D       		.byte	(.L26-.L23)/2
 233 002b 67       		.byte	(.L25-.L23)/2
 234 002c A2       		.byte	(.L21-.L23)/2
 235 002d A2       		.byte	(.L21-.L23)/2
 236 002e A2       		.byte	(.L21-.L23)/2
 237 002f A2       		.byte	(.L21-.L23)/2
 238 0030 A2       		.byte	(.L21-.L23)/2
 239 0031 A2       		.byte	(.L21-.L23)/2
 240 0032 A2       		.byte	(.L21-.L23)/2
 241 0033 A2       		.byte	(.L21-.L23)/2
 242 0034 19       		.byte	(.L24-.L23)/2
 243 0035 33       		.byte	(.L22-.L23)/2
 244              	.LVL10:
 245              		.p2align 1
 246              	.L44:
 102:src/noapp_app.c ****   while (TRUE) {
 103:src/noapp_app.c ****     ESOS_TASK_WAIT_ON_AVAILABLE_IN_COMM();
 247              		.loc 1 103 5 discriminator 2 view .LVU49
 248 0036 0423     		movs	r3, #4
 249 0038 A370     		strb	r3, [r4, #2]
 250              		.loc 1 103 5 discriminator 2 view .LVU50
 251 003a 0325     		movs	r5, #3
 252 003c 9CE0     		b	.L28
 253              	.L29:
 254              		.loc 1 103 5 discriminator 5 view .LVU51
 255 003e 43F00103 		orr	r3, r3, #1
 256 0042 A370     		strb	r3, [r4, #2]
 257 0044 4AE0     		b	.L30
 258              	.L45:
 104:src/noapp_app.c ****     ESOS_TASK_WAIT_ON_GET_UINT8( u8_incoming );
 259              		.loc 1 104 5 discriminator 2 view .LVU52
 260 0046 0423     		movs	r3, #4
 261 0048 A370     		strb	r3, [r4, #2]
 262              		.loc 1 104 5 discriminator 2 view .LVU53
 263 004a 0325     		movs	r5, #3
 264 004c 94E0     		b	.L28
 265              	.L32:
 266              		.loc 1 104 5 discriminator 5 view .LVU54
ARM GAS  C:\Users\Travis\AppData\Local\Temp\ccItFw22.s 			page 8


 267 004e A378     		ldrb	r3, [r4, #2]	@ zero_extendqisi2
 268 0050 43F00103 		orr	r3, r3, #1
 269 0054 A370     		strb	r3, [r4, #2]
 270 0056 5EE0     		b	.L33
 271              	.L34:
 105:src/noapp_app.c ****     ESOS_TASK_SIGNAL_AVAILABLE_IN_COMM();
 106:src/noapp_app.c **** 
 107:src/noapp_app.c ****     if(gpio_get(SW1_GPIO_Port,SW1_Pin) == 0)
 108:src/noapp_app.c ****     {
 109:src/noapp_app.c ****       if (u8_incoming >= 'a' && u8_incoming <='z')
 110:src/noapp_app.c ****         u8_incoming = u8_incoming - 'a' + 'A';
 111:src/noapp_app.c ****     }
 112:src/noapp_app.c **** 
 113:src/noapp_app.c ****     ESOS_TASK_WAIT_ON_AVAILABLE_OUT_COMM();
 272              		.loc 1 113 5 view .LVU55
 273              		.loc 1 113 5 view .LVU56
 274 0058 7123     		movs	r3, #113
 275 005a 2380     		strh	r3, [r4]	@ movhi
 276              	.L24:
 277              		.loc 1 113 5 discriminator 1 view .LVU57
 278              		.loc 1 113 5 discriminator 1 view .LVU58
 279 005c A378     		ldrb	r3, [r4, #2]	@ zero_extendqisi2
 280 005e 13F00405 		ands	r5, r3, #4
 281 0062 73D1     		bne	.L42
 282              		.loc 1 113 5 discriminator 3 view .LVU59
 283 0064 454A     		ldr	r2, .L46
 284 0066 1268     		ldr	r2, [r2]
 285 0068 12F0040F 		tst	r2, #4
 286 006c 72D1     		bne	.L36
 287              		.loc 1 113 5 discriminator 4 view .LVU60
 288 006e 23F00103 		bic	r3, r3, #1
 289 0072 A370     		strb	r3, [r4, #2]
 290              	.L37:
 291              		.loc 1 113 5 discriminator 7 view .LVU61
 292 0074 A378     		ldrb	r3, [r4, #2]	@ zero_extendqisi2
 293 0076 13F0010F 		tst	r3, #1
 294 007a 7DD1     		bne	.L28
 295              		.loc 1 113 5 discriminator 9 view .LVU62
 296              		.loc 1 113 5 discriminator 9 view .LVU63
 297 007c 3F4A     		ldr	r2, .L46
 298 007e 1368     		ldr	r3, [r2]
 299 0080 43F00403 		orr	r3, r3, #4
 300 0084 1360     		str	r3, [r2]
 114:src/noapp_app.c ****     ESOS_TASK_WAIT_ON_SEND_UINT8( u8_incoming );
 301              		.loc 1 114 5 discriminator 9 view .LVU64
 302              		.loc 1 114 5 discriminator 9 view .LVU65
 303 0086 3E4B     		ldr	r3, .L46+4
 304 0088 0022     		movs	r2, #0
 305 008a 1A80     		strh	r2, [r3]	@ movhi
 306              		.loc 1 114 5 discriminator 9 view .LVU66
 307              		.loc 1 114 5 discriminator 9 view .LVU67
 308              		.loc 1 114 5 discriminator 9 view .LVU68
 309              		.loc 1 114 5 discriminator 9 view .LVU69
 310 008c 7223     		movs	r3, #114
 311 008e 2380     		strh	r3, [r4]	@ movhi
 312              	.L22:
 313              		.loc 1 114 5 discriminator 1 view .LVU70
ARM GAS  C:\Users\Travis\AppData\Local\Temp\ccItFw22.s 			page 9


 314              		.loc 1 114 5 discriminator 1 view .LVU71
 315 0090 A578     		ldrb	r5, [r4, #2]	@ zero_extendqisi2
 316 0092 15F00405 		ands	r5, r5, #4
 317 0096 61D1     		bne	.L43
 318              		.loc 1 114 5 discriminator 3 view .LVU72
 319 0098 3A4B     		ldr	r3, .L46+8
 320 009a 1978     		ldrb	r1, [r3]	@ zero_extendqisi2
 321 009c 3848     		ldr	r0, .L46+4
 322 009e FFF7FEFF 		bl	__esos_OutChar
 323              	.LVL11:
 324 00a2 0228     		cmp	r0, #2
 325 00a4 5ED9     		bls	.L39
 326              		.loc 1 114 5 discriminator 4 view .LVU73
 327 00a6 A378     		ldrb	r3, [r4, #2]	@ zero_extendqisi2
 328 00a8 23F00103 		bic	r3, r3, #1
 329 00ac A370     		strb	r3, [r4, #2]
 330              	.L40:
 331              		.loc 1 114 5 discriminator 7 view .LVU74
 332 00ae A378     		ldrb	r3, [r4, #2]	@ zero_extendqisi2
 333 00b0 13F0010F 		tst	r3, #1
 334 00b4 60D1     		bne	.L28
 335              		.loc 1 114 5 discriminator 9 view .LVU75
 336              		.loc 1 114 5 discriminator 9 view .LVU76
 115:src/noapp_app.c ****     ESOS_TASK_SIGNAL_AVAILABLE_OUT_COMM();
 337              		.loc 1 115 5 discriminator 9 view .LVU77
 338 00b6 314A     		ldr	r2, .L46
 339 00b8 1368     		ldr	r3, [r2]
 340 00ba 23F00403 		bic	r3, r3, #4
 341 00be 1360     		str	r3, [r2]
 102:src/noapp_app.c ****     ESOS_TASK_WAIT_ON_AVAILABLE_IN_COMM();
 342              		.loc 1 102 9 discriminator 9 view .LVU78
 343              	.L20:
 101:src/noapp_app.c ****   while (TRUE) {
 344              		.loc 1 101 20 discriminator 1 view .LVU79
 102:src/noapp_app.c ****     ESOS_TASK_WAIT_ON_AVAILABLE_IN_COMM();
 345              		.loc 1 102 3 discriminator 1 view .LVU80
 103:src/noapp_app.c ****     ESOS_TASK_WAIT_ON_GET_UINT8( u8_incoming );
 346              		.loc 1 103 5 discriminator 1 view .LVU81
 103:src/noapp_app.c ****     ESOS_TASK_WAIT_ON_GET_UINT8( u8_incoming );
 347              		.loc 1 103 5 discriminator 1 view .LVU82
 348 00c0 6723     		movs	r3, #103
 349 00c2 2380     		strh	r3, [r4]	@ movhi
 350              	.L26:
 103:src/noapp_app.c ****     ESOS_TASK_WAIT_ON_GET_UINT8( u8_incoming );
 351              		.loc 1 103 5 discriminator 1 view .LVU83
 103:src/noapp_app.c ****     ESOS_TASK_WAIT_ON_GET_UINT8( u8_incoming );
 352              		.loc 1 103 5 discriminator 1 view .LVU84
 353 00c4 A378     		ldrb	r3, [r4, #2]	@ zero_extendqisi2
 354 00c6 13F00405 		ands	r5, r3, #4
 355 00ca B4D1     		bne	.L44
 103:src/noapp_app.c ****     ESOS_TASK_WAIT_ON_GET_UINT8( u8_incoming );
 356              		.loc 1 103 5 discriminator 3 view .LVU85
 357 00cc 2B4A     		ldr	r2, .L46
 358 00ce 1268     		ldr	r2, [r2]
 359 00d0 12F0080F 		tst	r2, #8
 360 00d4 B3D1     		bne	.L29
 103:src/noapp_app.c ****     ESOS_TASK_WAIT_ON_GET_UINT8( u8_incoming );
ARM GAS  C:\Users\Travis\AppData\Local\Temp\ccItFw22.s 			page 10


 361              		.loc 1 103 5 discriminator 4 view .LVU86
 362 00d6 23F00103 		bic	r3, r3, #1
 363 00da A370     		strb	r3, [r4, #2]
 364              	.L30:
 103:src/noapp_app.c ****     ESOS_TASK_WAIT_ON_GET_UINT8( u8_incoming );
 365              		.loc 1 103 5 discriminator 7 view .LVU87
 366 00dc A378     		ldrb	r3, [r4, #2]	@ zero_extendqisi2
 367 00de 13F0010F 		tst	r3, #1
 368 00e2 49D1     		bne	.L28
 103:src/noapp_app.c ****     ESOS_TASK_WAIT_ON_GET_UINT8( u8_incoming );
 369              		.loc 1 103 5 discriminator 9 view .LVU88
 103:src/noapp_app.c ****     ESOS_TASK_WAIT_ON_GET_UINT8( u8_incoming );
 370              		.loc 1 103 5 discriminator 9 view .LVU89
 371 00e4 254A     		ldr	r2, .L46
 372 00e6 1368     		ldr	r3, [r2]
 373 00e8 43F00803 		orr	r3, r3, #8
 374 00ec 1360     		str	r3, [r2]
 104:src/noapp_app.c ****     ESOS_TASK_SIGNAL_AVAILABLE_IN_COMM();
 375              		.loc 1 104 5 discriminator 9 view .LVU90
 104:src/noapp_app.c ****     ESOS_TASK_SIGNAL_AVAILABLE_IN_COMM();
 376              		.loc 1 104 5 discriminator 9 view .LVU91
 377 00ee 264B     		ldr	r3, .L46+12
 378 00f0 0022     		movs	r2, #0
 379 00f2 1A80     		strh	r2, [r3]	@ movhi
 104:src/noapp_app.c ****     ESOS_TASK_SIGNAL_AVAILABLE_IN_COMM();
 380              		.loc 1 104 5 discriminator 9 view .LVU92
 104:src/noapp_app.c ****     ESOS_TASK_SIGNAL_AVAILABLE_IN_COMM();
 381              		.loc 1 104 5 discriminator 9 view .LVU93
 104:src/noapp_app.c ****     ESOS_TASK_SIGNAL_AVAILABLE_IN_COMM();
 382              		.loc 1 104 5 discriminator 9 view .LVU94
 104:src/noapp_app.c ****     ESOS_TASK_SIGNAL_AVAILABLE_IN_COMM();
 383              		.loc 1 104 5 discriminator 9 view .LVU95
 384 00f4 6823     		movs	r3, #104
 385 00f6 2380     		strh	r3, [r4]	@ movhi
 386              	.L25:
 104:src/noapp_app.c ****     ESOS_TASK_SIGNAL_AVAILABLE_IN_COMM();
 387              		.loc 1 104 5 discriminator 1 view .LVU96
 104:src/noapp_app.c ****     ESOS_TASK_SIGNAL_AVAILABLE_IN_COMM();
 388              		.loc 1 104 5 discriminator 1 view .LVU97
 389 00f8 A578     		ldrb	r5, [r4, #2]	@ zero_extendqisi2
 390 00fa 15F00405 		ands	r5, r5, #4
 391 00fe A2D1     		bne	.L45
 104:src/noapp_app.c ****     ESOS_TASK_SIGNAL_AVAILABLE_IN_COMM();
 392              		.loc 1 104 5 discriminator 3 view .LVU98
 393 0100 0122     		movs	r2, #1
 394 0102 2049     		ldr	r1, .L46+8
 395 0104 2048     		ldr	r0, .L46+12
 396 0106 FFF7FEFF 		bl	__esos_getBuffer
 397              	.LVL12:
 398 010a 0228     		cmp	r0, #2
 399 010c 9FD9     		bls	.L32
 104:src/noapp_app.c ****     ESOS_TASK_SIGNAL_AVAILABLE_IN_COMM();
 400              		.loc 1 104 5 discriminator 4 view .LVU99
 401 010e A378     		ldrb	r3, [r4, #2]	@ zero_extendqisi2
 402 0110 23F00103 		bic	r3, r3, #1
 403 0114 A370     		strb	r3, [r4, #2]
 404              	.L33:
ARM GAS  C:\Users\Travis\AppData\Local\Temp\ccItFw22.s 			page 11


 104:src/noapp_app.c ****     ESOS_TASK_SIGNAL_AVAILABLE_IN_COMM();
 405              		.loc 1 104 5 discriminator 7 view .LVU100
 406 0116 A378     		ldrb	r3, [r4, #2]	@ zero_extendqisi2
 407 0118 13F0010F 		tst	r3, #1
 408 011c 2CD1     		bne	.L28
 104:src/noapp_app.c ****     ESOS_TASK_SIGNAL_AVAILABLE_IN_COMM();
 409              		.loc 1 104 5 discriminator 9 view .LVU101
 104:src/noapp_app.c ****     ESOS_TASK_SIGNAL_AVAILABLE_IN_COMM();
 410              		.loc 1 104 5 discriminator 9 view .LVU102
 105:src/noapp_app.c **** 
 411              		.loc 1 105 5 discriminator 9 view .LVU103
 412 011e 174A     		ldr	r2, .L46
 413 0120 1368     		ldr	r3, [r2]
 414 0122 23F00803 		bic	r3, r3, #8
 415 0126 1360     		str	r3, [r2]
 107:src/noapp_app.c ****     {
 416              		.loc 1 107 5 discriminator 9 view .LVU104
 107:src/noapp_app.c ****     {
 417              		.loc 1 107 8 is_stmt 0 discriminator 9 view .LVU105
 418 0128 4FF40051 		mov	r1, #8192
 419 012c 1748     		ldr	r0, .L46+16
 420 012e FFF7FEFF 		bl	gpio_get
 421              	.LVL13:
 107:src/noapp_app.c ****     {
 422              		.loc 1 107 7 discriminator 9 view .LVU106
 423 0132 0028     		cmp	r0, #0
 424 0134 90D1     		bne	.L34
 109:src/noapp_app.c ****         u8_incoming = u8_incoming - 'a' + 'A';
 425              		.loc 1 109 7 is_stmt 1 view .LVU107
 109:src/noapp_app.c ****         u8_incoming = u8_incoming - 'a' + 'A';
 426              		.loc 1 109 30 is_stmt 0 view .LVU108
 427 0136 134B     		ldr	r3, .L46+8
 428 0138 1A78     		ldrb	r2, [r3]	@ zero_extendqisi2
 429 013a A2F16103 		sub	r3, r2, #97
 430 013e DBB2     		uxtb	r3, r3
 109:src/noapp_app.c ****         u8_incoming = u8_incoming - 'a' + 'A';
 431              		.loc 1 109 10 view .LVU109
 432 0140 192B     		cmp	r3, #25
 433 0142 89D8     		bhi	.L34
 110:src/noapp_app.c ****     }
 434              		.loc 1 110 9 is_stmt 1 view .LVU110
 110:src/noapp_app.c ****     }
 435              		.loc 1 110 41 is_stmt 0 view .LVU111
 436 0144 203A     		subs	r2, r2, #32
 110:src/noapp_app.c ****     }
 437              		.loc 1 110 21 view .LVU112
 438 0146 0F4B     		ldr	r3, .L46+8
 439 0148 1A70     		strb	r2, [r3]
 440 014a 85E7     		b	.L34
 441              	.L42:
 113:src/noapp_app.c ****     ESOS_TASK_WAIT_ON_SEND_UINT8( u8_incoming );
 442              		.loc 1 113 5 is_stmt 1 discriminator 2 view .LVU113
 443 014c 0423     		movs	r3, #4
 444 014e A370     		strb	r3, [r4, #2]
 113:src/noapp_app.c ****     ESOS_TASK_WAIT_ON_SEND_UINT8( u8_incoming );
 445              		.loc 1 113 5 discriminator 2 view .LVU114
 446 0150 0325     		movs	r5, #3
ARM GAS  C:\Users\Travis\AppData\Local\Temp\ccItFw22.s 			page 12


 447 0152 11E0     		b	.L28
 448              	.L36:
 113:src/noapp_app.c ****     ESOS_TASK_WAIT_ON_SEND_UINT8( u8_incoming );
 449              		.loc 1 113 5 discriminator 5 view .LVU115
 450 0154 43F00103 		orr	r3, r3, #1
 451 0158 A370     		strb	r3, [r4, #2]
 452 015a 8BE7     		b	.L37
 453              	.L43:
 114:src/noapp_app.c ****     ESOS_TASK_SIGNAL_AVAILABLE_OUT_COMM();
 454              		.loc 1 114 5 discriminator 2 view .LVU116
 455 015c 0423     		movs	r3, #4
 456 015e A370     		strb	r3, [r4, #2]
 114:src/noapp_app.c ****     ESOS_TASK_SIGNAL_AVAILABLE_OUT_COMM();
 457              		.loc 1 114 5 discriminator 2 view .LVU117
 458 0160 0325     		movs	r5, #3
 459 0162 09E0     		b	.L28
 460              	.L39:
 114:src/noapp_app.c ****     ESOS_TASK_SIGNAL_AVAILABLE_OUT_COMM();
 461              		.loc 1 114 5 discriminator 5 view .LVU118
 462 0164 A378     		ldrb	r3, [r4, #2]	@ zero_extendqisi2
 463 0166 43F00103 		orr	r3, r3, #1
 464 016a A370     		strb	r3, [r4, #2]
 465 016c 9FE7     		b	.L40
 466              	.LVL14:
 467              	.L21:
 116:src/noapp_app.c **** 
 117:src/noapp_app.c ****   } // endof while(TRUE)
 118:src/noapp_app.c ****   ESOS_TASK_END();
 468              		.loc 1 118 3 view .LVU119
 469              		.loc 1 118 3 view .LVU120
 470 016e 0823     		movs	r3, #8
 471 0170 A370     		strb	r3, [r4, #2]
 472              		.loc 1 118 3 view .LVU121
 473 0172 0023     		movs	r3, #0
 474 0174 2380     		strh	r3, [r4]	@ movhi
 475              		.loc 1 118 3 view .LVU122
 476              		.loc 1 118 3 view .LVU123
 477              		.loc 1 118 3 view .LVU124
 478 0176 0325     		movs	r5, #3
 479              	.LVL15:
 480              	.L28:
 481              		.loc 1 118 18 discriminator 1 view .LVU125
 119:src/noapp_app.c **** } // end echo()
 482              		.loc 1 119 1 is_stmt 0 discriminator 1 view .LVU126
 483 0178 2846     		mov	r0, r5
 484 017a 38BD     		pop	{r3, r4, r5, pc}
 485              	.LVL16:
 486              	.L47:
 487              		.loc 1 119 1 discriminator 1 view .LVU127
 488              		.align	2
 489              	.L46:
 490 017c 00000000 		.word	__esos_u32SystemFlags
 491 0180 00000000 		.word	__stChildTaskTx
 492 0184 00000000 		.word	.LANCHOR0
 493 0188 00000000 		.word	__stChildTaskRx
 494 018c 00080048 		.word	1207961600
 495              		.cfi_endproc
ARM GAS  C:\Users\Travis\AppData\Local\Temp\ccItFw22.s 			page 13


 496              	.LFE1:
 498              		.section	.text.__user_init_hw,"ax",%progbits
 499              		.align	1
 500              		.global	__user_init_hw
 501              		.syntax unified
 502              		.thumb
 503              		.thumb_func
 504              		.fpu fpv4-sp-d16
 506              	__user_init_hw:
 507              	.LFB2:
 120:src/noapp_app.c **** 
 121:src/noapp_app.c **** /************************************************************************
 122:src/noapp_app.c ****  * User supplied functions
 123:src/noapp_app.c ****  ************************************************************************
 124:src/noapp_app.c ****  */
 125:src/noapp_app.c **** void __user_init_hw(void) {
 508              		.loc 1 125 27 is_stmt 1 view -0
 509              		.cfi_startproc
 510              		@ args = 0, pretend = 0, frame = 0
 511              		@ frame_needed = 0, uses_anonymous_args = 0
 512 0000 08B5     		push	{r3, lr}
 513              	.LCFI2:
 514              		.cfi_def_cfa_offset 8
 515              		.cfi_offset 3, -8
 516              		.cfi_offset 14, -4
 126:src/noapp_app.c ****   /* GPIO Ports Clock Enable */
 127:src/noapp_app.c ****   rcc_periph_clock_enable(GPIOA);
 517              		.loc 1 127 3 view .LVU129
 518 0002 0020     		movs	r0, #0
 519 0004 FFF7FEFF 		bl	rcc_periph_clock_enable
 520              	.LVL17:
 128:src/noapp_app.c ****   rcc_periph_clock_enable(GPIOC);
 521              		.loc 1 128 3 view .LVU130
 522 0008 4FF40060 		mov	r0, #2048
 523 000c FFF7FEFF 		bl	rcc_periph_clock_enable
 524              	.LVL18:
 129:src/noapp_app.c **** 
 130:src/noapp_app.c ****   /*Configure GPIO pin : PC13 */
 131:src/noapp_app.c ****   gpio_mode_setup(SW1_GPIO_Port, GPIO_MODE_INPUT, GPIO_PUPD_NONE, SW1_Pin);
 525              		.loc 1 131 3 view .LVU131
 526 0010 4FF40053 		mov	r3, #8192
 527 0014 0022     		movs	r2, #0
 528 0016 1146     		mov	r1, r2
 529 0018 0548     		ldr	r0, .L50
 530 001a FFF7FEFF 		bl	gpio_mode_setup
 531              	.LVL19:
 132:src/noapp_app.c **** 
 133:src/noapp_app.c ****   /*Configure GPIO pin : LED2_Pin */
 134:src/noapp_app.c ****   gpio_mode_setup(LED2_GPIO_Port, GPIO_MODE_OUTPUT, GPIO_PUPD_NONE, LED2_Pin);
 532              		.loc 1 134 3 view .LVU132
 533 001e 2023     		movs	r3, #32
 534 0020 0022     		movs	r2, #0
 535 0022 0121     		movs	r1, #1
 536 0024 4FF09040 		mov	r0, #1207959552
 537 0028 FFF7FEFF 		bl	gpio_mode_setup
 538              	.LVL20:
 135:src/noapp_app.c **** 
ARM GAS  C:\Users\Travis\AppData\Local\Temp\ccItFw22.s 			page 14


 136:src/noapp_app.c **** }
 539              		.loc 1 136 1 is_stmt 0 view .LVU133
 540 002c 08BD     		pop	{r3, pc}
 541              	.L51:
 542 002e 00BF     		.align	2
 543              	.L50:
 544 0030 00080048 		.word	1207961600
 545              		.cfi_endproc
 546              	.LFE2:
 548              		.section	.rodata.user_init.str1.4,"aMS",%progbits,1
 549              		.align	2
 550              	.LC0:
 551 0000 0A737263 		.ascii	"\012src/noapp_app.c, built on Mar 10 2020 at 23:22:"
 551      2F6E6F61 
 551      70705F61 
 551      70702E63 
 551      2C206275 
 552 0030 31330A00 		.ascii	"13\012\000"
 553              		.section	.text.user_init,"ax",%progbits
 554              		.align	1
 555              		.global	user_init
 556              		.syntax unified
 557              		.thumb
 558              		.thumb_func
 559              		.fpu fpv4-sp-d16
 561              	user_init:
 562              	.LFB3:
 137:src/noapp_app.c **** 
 138:src/noapp_app.c **** 
 139:src/noapp_app.c **** 
 140:src/noapp_app.c **** /******************************************************************************
 141:src/noapp_app.c ****  * Function:        void user_init(void)
 142:src/noapp_app.c ****  *
 143:src/noapp_app.c ****  * PreCondition:    None
 144:src/noapp_app.c ****  *
 145:src/noapp_app.c ****  * Input:           None
 146:src/noapp_app.c ****  *
 147:src/noapp_app.c ****  * Output:          None
 148:src/noapp_app.c ****  *
 149:src/noapp_app.c ****  * Side Effects:    None
 150:src/noapp_app.c ****  *
 151:src/noapp_app.c ****  * Overview:        user_init is a centralized initialization routine where
 152:src/noapp_app.c ****  *                  the user can setup their application.   It is called
 153:src/noapp_app.c ****  *                  automagically by ES_OS during the operating system
 154:src/noapp_app.c ****  *                  initialization.
 155:src/noapp_app.c ****  *
 156:src/noapp_app.c ****  * Note:            The user should set up any state machines and init
 157:src/noapp_app.c ****  *                  all application variables.  They can also turn on
 158:src/noapp_app.c ****  *                  any needed peripherals here.
 159:src/noapp_app.c ****  *
 160:src/noapp_app.c ****  *                  The user SHALL NOT mess with the interrupt hardware
 161:src/noapp_app.c ****  *                  directly!!!  The ES_OS must be aware of the interrupts
 162:src/noapp_app.c ****  *                  and provides osXXXXXXX functions for the user to use.
 163:src/noapp_app.c ****  *                  Using these ES_OS-provided functions, the user may
 164:src/noapp_app.c ****  *                  (and probably should) initialize, register, and enable
 165:src/noapp_app.c ****  *                  interrupts in this routine.
 166:src/noapp_app.c ****  *
ARM GAS  C:\Users\Travis\AppData\Local\Temp\ccItFw22.s 			page 15


 167:src/noapp_app.c ****  *                  Furthermore, the user should register AT LEAST one
 168:src/noapp_app.c ****  *                  user application task here (via esos_RegisterTask) or
 169:src/noapp_app.c ****  *                  the ES_OS scheduler will have nothing to schedule
 170:src/noapp_app.c ****  *                  to run when this function returns.
 171:src/noapp_app.c ****  *
 172:src/noapp_app.c ****  *****************************************************************************/
 173:src/noapp_app.c **** void user_init(void) {
 563              		.loc 1 173 22 is_stmt 1 view -0
 564              		.cfi_startproc
 565              		@ args = 0, pretend = 0, frame = 0
 566              		@ frame_needed = 0, uses_anonymous_args = 0
 567 0000 08B5     		push	{r3, lr}
 568              	.LCFI3:
 569              		.cfi_def_cfa_offset 8
 570              		.cfi_offset 3, -8
 571              		.cfi_offset 14, -4
 174:src/noapp_app.c **** 
 175:src/noapp_app.c ****   // setup our software structures here
 176:src/noapp_app.c ****   
 177:src/noapp_app.c ****   // call our function to setup the hardware we like it.
 178:src/noapp_app.c ****   __user_init_hw();
 572              		.loc 1 178 3 view .LVU135
 573 0002 FFF7FEFF 		bl	__user_init_hw
 574              	.LVL21:
 179:src/noapp_app.c **** 
 180:src/noapp_app.c ****   // Drive the UART directly.....  to print the HELLO_MSG
 181:src/noapp_app.c ****   __esos_unsafe_PutString( HELLO_MSG );
 575              		.loc 1 181 3 view .LVU136
 576 0006 0248     		ldr	r0, .L54
 577 0008 FFF7FEFF 		bl	__esos_unsafe_PutString
 578              	.LVL22:
 182:src/noapp_app.c **** 
 183:src/noapp_app.c ****   /*
 184:src/noapp_app.c ****    * Now, let's get down and dirty with ESOS and our user tasks
 185:src/noapp_app.c ****    *
 186:src/noapp_app.c ****    *   Once tasks are registered, they will start executing in
 187:src/noapp_app.c ****    *   the ESOS scheduler.
 188:src/noapp_app.c ****    */
 189:src/noapp_app.c **** 
 190:src/noapp_app.c ****   // no user tasks registered, so this app does nothing.
 191:src/noapp_app.c ****   // A test to see if ESOS compiles correctly.....
 192:src/noapp_app.c **** 
 193:src/noapp_app.c **** } // end user_init()
 579              		.loc 1 193 1 is_stmt 0 view .LVU137
 580 000c 08BD     		pop	{r3, pc}
 581              	.L55:
 582 000e 00BF     		.align	2
 583              	.L54:
 584 0010 00000000 		.word	.LC0
 585              		.cfi_endproc
 586              	.LFE3:
 588              		.section	.bss.u8_incoming.6749,"aw",%nobits
 589              		.set	.LANCHOR0,. + 0
 592              	u8_incoming.6749:
 593 0000 00       		.space	1
 594              		.text
 595              	.Letext0:
ARM GAS  C:\Users\Travis\AppData\Local\Temp\ccItFw22.s 			page 16


 596              		.file 2 "c:\\program files (x86)\\gnu tools arm embedded\\9 2019-q4-major\\arm-none-eabi\\include\
 597              		.file 3 "c:\\program files (x86)\\gnu tools arm embedded\\9 2019-q4-major\\arm-none-eabi\\include\
 598              		.file 4 "C:/MinGW/msys/1.0/esos32/include/lc-switch.h"
 599              		.file 5 "C:/MinGW/msys/1.0/esos32/include/esos_cb.h"
 600              		.file 6 "C:/MinGW/msys/1.0/esos32/include/esos_mail.h"
 601              		.file 7 "C:/MinGW/msys/1.0/esos32/include/esos_task.h"
 602              		.file 8 "C:/MinGW/msys/1.0/esos32/include/esos_utils.h"
 603              		.file 9 "C:/MinGW/msys/1.0/esos32/include/esos_comm.h"
 604              		.file 10 "C:/MinGW/msys/1.0/esos32/include/esos.h"
 605              		.file 11 "C:/MinGW/msys/1.0/libopencm3-master/libopencm3-master/include/libopencm3/stm32/l4/rcc.h"
 606              		.file 12 "C:/MinGW/msys/1.0/esos32/include/stm32l4_ocm3/esos_stm32l4_rs232.h"
 607              		.file 13 "C:/MinGW/msys/1.0/libopencm3-master/libopencm3-master/include/libopencm3/stm32/common/rc
 608              		.file 14 "C:/MinGW/msys/1.0/libopencm3-master/libopencm3-master/include/libopencm3/stm32/common/gp
 609              		.file 15 "C:/MinGW/msys/1.0/libopencm3-master/libopencm3-master/include/libopencm3/stm32/common/gp
 610              		.file 16 "C:/MinGW/msys/1.0/esos32/include/all_generic.h"
ARM GAS  C:\Users\Travis\AppData\Local\Temp\ccItFw22.s 			page 17

